GAS LISTING C:\Users\thoma\AppData\Local\Temp\ccs6bbmE.s 			page 1


   1              		.file	"shellcmd.c"
   2              		.section	".text","axv"
   3              	.Ltext0:
   4              		.cfi_sections	.debug_frame
   5              		.section	.text.chprintf,"axv",@progbits
   6              		.align 1
   7              		.p2align 4,,15
   8              		.type	chprintf, @function
   9              	chprintf:
  10              	.LFB44:
  11              		.file 1 "./components/chibios_rt_portable_output_formatter_component/lib/include/chprintf.h"
  12              		.loc 1 69 0
  13              		.cfi_startproc
  14              	.LVL0:
  15 0000 182106D0 		e_stwu %r1,-48(%r1)
  16              	.LCFI0:
  17              		.cfi_def_cfa_offset 48
  18 0004 0080     		se_mflr %r0
  19 0006 D651     		se_stw %r5,24(%r1)
  20 0008 DD01     		se_stw %r0,52(%r1)
  21              		.cfi_offset 65, 4
  22              		.loc 1 69 0
  23 000a 55210028 		e_stw %r9,40(%r1)
  24 000e D761     		se_stw %r6,28(%r1)
  25 0010 D871     		se_stw %r7,32(%r1)
  26 0012 55010024 		e_stw %r8,36(%r1)
  27 0016 5541002C 		e_stw %r10,44(%r1)
  28              		.loc 1 72 0
  29 001a 71200002 		e_li %r9,2
  30              		.loc 1 73 0
  31 001e 18A18008 		e_addi %r5,%r1,8
  32              		.loc 1 72 0
  33 0022 35210008 		e_stb %r9,8(%r1)
  34 0026 71200000 		e_li %r9,0
  35 002a 35210009 		e_stb %r9,9(%r1)
  36 002e 19218038 		e_addi %r9,%r1,56
  37 0032 5521000C 		e_stw %r9,12(%r1)
  38 0036 19218010 		e_addi %r9,%r1,16
  39 003a 55210010 		e_stw %r9,16(%r1)
  40              		.loc 1 73 0
  41 003e 78000001 		e_bl chvprintf
  42              	.LVL1:
  43              		.loc 1 75 0
  44 0042 CD01     		se_lwz %r0,52(%r1)
  45 0044 0090     		se_mtlr %r0
  46              		.cfi_restore 65
  47 0046 18218030 		e_addi %r1,%r1,48
  48              	.LCFI1:
  49              		.cfi_def_cfa_offset 0
  50 004a 0004     		se_blr
  51              		.cfi_endproc
  52              	.LFE44:
  53              		.size	chprintf, .-chprintf
  54              		.section	.text.stopdemo,"axv",@progbits
  55              		.align 1
  56              		.p2align 4,,15
  57              		.globl stopdemo
GAS LISTING C:\Users\thoma\AppData\Local\Temp\ccs6bbmE.s 			page 2


  58              		.type	stopdemo, @function
  59              	stopdemo:
  60              	.LFB59:
  61              		.file 2 "./source/shellcmd.c"
  62              		.loc 2 386 0
  63              		.cfi_startproc
  64              	.LVL2:
  65              		.loc 2 389 0
  66 0000 2A04     		se_cmpi %r4,0
  67 0002 7A02000E 		e_bne %cr0,.L5
  68              		.loc 2 394 0
  69 0006 7120E000 		e_lis %r9,.LANCHOR0@ha
  70 000a 34890000 		e_stb %r4,.LANCHOR0@l(%r9)
  71 000e 0004     		se_blr
  72              	.L5:
  73              		.loc 2 390 0
  74 0010 7080E000 		e_lis %r4,.LC0@ha
  75              	.LVL3:
  76              		.loc 2 395 0
  77              		.loc 2 390 0
  78 0014 1C840000 		e_la %r4,.LC0@l(%r4)
  79 0018 78000000 		e_b chprintf
  80              	.LVL4:
  81              		.cfi_endproc
  82              	.LFE59:
  83              		.size	stopdemo, .-stopdemo
  84              		.section	.text.ThreadFullDemo,"axv",@progbits
  85              		.align 1
  86              		.p2align 4,,15
  87              		.type	ThreadFullDemo, @function
  88              	ThreadFullDemo:
  89              	.LFB47:
  90              		.loc 2 65 0
  91              		.cfi_startproc
  92              	.LVL5:
  93 0000 182106E8 		e_stwu %r1,-24(%r1)
  94              	.LCFI2:
  95              		.cfi_def_cfa_offset 24
  96              		.loc 2 67 0
  97 0004 7120E000 		e_lis %r9,rlist+24@ha
  98              		.loc 2 65 0
  99 0008 1B810908 		e_stmw %r28,8(%r1)
 100              		.loc 2 67 0
 101 000c 51490000 		e_lwz %r10,rlist+24@l(%r9)
 102              		.loc 2 65 0
 103 0010 0080     		se_mflr %r0
 104              		.cfi_offset 28, -16
 105              		.cfi_offset 29, -12
 106              		.cfi_offset 30, -8
 107              		.cfi_offset 31, -4
 108              		.cfi_register 65, 0
 109              		.loc 2 69 0
 110 0012 73E0E000 		e_lis %r31,.LANCHOR0@ha
 111              		.loc 2 65 0
 112 0016 D701     		se_stw %r0,28(%r1)
 113              		.cfi_offset 65, 4
 114              		.loc 2 67 0
GAS LISTING C:\Users\thoma\AppData\Local\Temp\ccs6bbmE.s 			page 3


 115 0018 7120E000 		e_lis %r9,.LC1@ha
 116 001c 1D290000 		e_la %r9,.LC1@l(%r9)
 117 0020 552A0018 		e_stw %r9,24(%r10)
 118              		.loc 2 69 0
 119 0024 313F0000 		e_lbz %r9,.LANCHOR0@l(%r31)
 120 0028 1829A800 		e_cmpi %cr1,%r9,0
 121 002c 7A1600CA 		e_beq %cr1,.L8
 122              		.loc 2 129 0
 123 0030 73C0E000 		e_lis %r30,bLightOn@ha
 124 0034 1FFF0000 		e_la %r31,.LANCHOR0@l(%r31)
 125 0038 1FDE0000 		e_la %r30,bLightOn@l(%r30)
 126 003c 481C     		se_li %r28,1
 127              		.loc 2 136 0
 128 003e 480D     		se_li %r29,0
 129 0040 78000098 		e_b .L7
 130              	.LVL6:
 131              	.L29:
 132              		.loc 2 83 0
 133 0044 70820388 		e_li %r4,5000
 134 0048 4823     		se_li %r3,2
 135 004a 78000001 		e_bl drivecmd
 136              	.LVL7:
 137              		.loc 2 87 0
 138 004e 70620388 		e_li %r3,5000
 139 0052 78000001 		e_bl chThdSleep
 140              	.LVL8:
 141              		.loc 2 90 0
 142 0056 313F0000 		e_lbz %r9,0(%r31)
 143 005a 1829A800 		e_cmpi %cr1,%r9,0
 144 005e 7A1600AC 		e_beq %cr1,.L10
 145              		.loc 2 91 0
 146 0062 4813     		se_li %r3,1
 147 0064 78000001 		e_bl turncmd
 148              	.LVL9:
 149              		.loc 2 97 0
 150 0068 70620388 		e_li %r3,5000
 151 006c 78000001 		e_bl chThdSleep
 152              	.LVL10:
 153              		.loc 2 100 0
 154 0070 313F0000 		e_lbz %r9,0(%r31)
 155 0074 1829A800 		e_cmpi %cr1,%r9,0
 156 0078 7A160092 		e_beq %cr1,.L10
 157              		.loc 2 101 0
 158 007c 4823     		se_li %r3,2
 159 007e 78000001 		e_bl turncmd
 160              	.LVL11:
 161              		.loc 2 107 0
 162 0082 70620388 		e_li %r3,5000
 163 0086 78000001 		e_bl chThdSleep
 164              	.LVL12:
 165              		.loc 2 110 0
 166 008a 313F0000 		e_lbz %r9,0(%r31)
 167 008e 1829A800 		e_cmpi %cr1,%r9,0
 168 0092 7A160078 		e_beq %cr1,.L10
 169              		.loc 2 111 0
 170 0096 4803     		se_li %r3,0
 171 0098 78000001 		e_bl turncmd
GAS LISTING C:\Users\thoma\AppData\Local\Temp\ccs6bbmE.s 			page 4


 172              	.LVL13:
 173              		.loc 2 117 0
 174 009c 70620388 		e_li %r3,5000
 175 00a0 78000001 		e_bl chThdSleep
 176              	.LVL14:
 177              		.loc 2 120 0
 178 00a4 313F0000 		e_lbz %r9,0(%r31)
 179 00a8 1829A800 		e_cmpi %cr1,%r9,0
 180 00ac 7A16005E 		e_beq %cr1,.L10
 181              		.loc 2 121 0
 182 00b0 78000001 		e_bl stopcmd
 183              	.LVL15:
 184              		.loc 2 128 0
 185 00b4 313F0000 		e_lbz %r9,0(%r31)
 186 00b8 1829A800 		e_cmpi %cr1,%r9,0
 187 00bc 7A16004E 		e_beq %cr1,.L10
 188              		.loc 2 129 0
 189 00c0 90CE     		se_stb %r28,0(%r30)
 190              		.loc 2 135 0
 191 00c2 70690620 		e_li %r3,20000
 192 00c6 78000001 		e_bl chThdSleep
 193              	.LVL16:
 194              		.loc 2 69 0
 195 00ca 313F0000 		e_lbz %r9,0(%r31)
 196              		.loc 2 136 0
 197 00ce 90DE     		se_stb %r29,0(%r30)
 198              		.loc 2 69 0
 199 00d0 1829A800 		e_cmpi %cr1,%r9,0
 200 00d4 7A160022 		e_beq %cr1,.L8
 201              	.L7:
 202              		.loc 2 73 0
 203 00d8 70820388 		e_li %r4,5000
 204 00dc 4813     		se_li %r3,1
 205 00de 78000001 		e_bl drivecmd
 206              	.LVL17:
 207              		.loc 2 79 0
 208 00e2 70620388 		e_li %r3,5000
 209 00e6 78000001 		e_bl chThdSleep
 210              	.LVL18:
 211              		.loc 2 82 0
 212 00ea 313F0000 		e_lbz %r9,0(%r31)
 213 00ee 1829A800 		e_cmpi %cr1,%r9,0
 214 00f2 7A06FF52 		e_bne %cr1,.L29
 215              	.L8:
 216              		.loc 2 139 0
 217 00f6 4803     		se_li %r3,0
 218 00f8 78000001 		e_bl chThdExit
 219              	.LVL19:
 220              		.loc 2 142 0
 221 00fc C701     		se_lwz %r0,28(%r1)
 222 00fe 0090     		se_mtlr %r0
 223              		.cfi_remember_state
 224              		.cfi_restore 65
 225 0100 1B810808 		e_lmw %r28,8(%r1)
 226 0104 4803     		se_li %r3,0
 227 0106 2171     		se_addi %r1,24
 228              	.LCFI3:
GAS LISTING C:\Users\thoma\AppData\Local\Temp\ccs6bbmE.s 			page 5


 229              		.cfi_restore 31
 230              		.cfi_restore 30
 231              		.cfi_restore 29
 232              		.cfi_restore 28
 233              		.cfi_def_cfa_offset 0
 234 0108 0004     		se_blr
 235              	.L10:
 236              	.LCFI4:
 237              		.cfi_restore_state
 238              		.loc 2 93 0
 239 010a 78000001 		e_bl stopcmd
 240              	.LVL20:
 241              		.loc 2 139 0
 242 010e 4803     		se_li %r3,0
 243 0110 78000001 		e_bl chThdExit
 244              	.LVL21:
 245              		.loc 2 142 0
 246 0114 C701     		se_lwz %r0,28(%r1)
 247 0116 0090     		se_mtlr %r0
 248              		.cfi_restore 65
 249 0118 1B810808 		e_lmw %r28,8(%r1)
 250 011c 4803     		se_li %r3,0
 251 011e 2171     		se_addi %r1,24
 252              	.LCFI5:
 253              		.cfi_restore 28
 254              		.cfi_restore 29
 255              		.cfi_restore 30
 256              		.cfi_restore 31
 257              		.cfi_def_cfa_offset 0
 258 0120 0004     		se_blr
 259              		.cfi_endproc
 260              	.LFE47:
 261              		.size	ThreadFullDemo, .-ThreadFullDemo
 262              		.section	.text.cmd_mem,"axv",@progbits
 263              		.align 1
 264              		.p2align 4,,15
 265              		.globl cmd_mem
 266              		.type	cmd_mem, @function
 267              	cmd_mem:
 268              	.LFB48:
 269              		.loc 2 147 0
 270              		.cfi_startproc
 271              	.LVL22:
 272 0000 182106E0 		e_stwu %r1,-32(%r1)
 273              	.LCFI6:
 274              		.cfi_def_cfa_offset 32
 275 0004 0080     		se_mflr %r0
 276 0006 1BC10918 		e_stmw %r30,24(%r1)
 277 000a D901     		se_stw %r0,36(%r1)
 278              		.cfi_offset 65, 4
 279              		.cfi_offset 30, -8
 280              		.cfi_offset 31, -4
 281              		.loc 2 147 0
 282 000c 013F     		se_mr %r31,%r3
 283              		.loc 2 151 0
 284 000e 1824A800 		e_cmpi %cr1,%r4,0
 285 0012 7A05001C 		e_ble %cr1,.L31
GAS LISTING C:\Users\thoma\AppData\Local\Temp\ccs6bbmE.s 			page 6


 286              		.loc 2 152 0
 287 0016 7080E000 		e_lis %r4,.LC2@ha
 288              	.LVL23:
 289 001a 1C840000 		e_la %r4,.LC2@l(%r4)
 290 001e 78000001 		e_bl chprintf
 291              	.LVL24:
 292              		.loc 2 159 0
 293 0022 C901     		se_lwz %r0,36(%r1)
 294 0024 0090     		se_mtlr %r0
 295              		.cfi_remember_state
 296              		.cfi_restore 65
 297 0026 1BC10818 		e_lmw %r30,24(%r1)
 298              	.LVL25:
 299 002a 21F1     		se_addi %r1,32
 300              	.LCFI7:
 301              		.cfi_restore 31
 302              		.cfi_restore 30
 303              		.cfi_def_cfa_offset 0
 304 002c 0004     		se_blr
 305              	.LVL26:
 306              	.L31:
 307              	.LCFI8:
 308              		.cfi_restore_state
 309              	.LBB4:
 310              	.LBB5:
 311              		.loc 2 155 0
 312 002e 18818008 		e_addi %r4,%r1,8
 313              	.LVL27:
 314 0032 4803     		se_li %r3,0
 315              	.LVL28:
 316 0034 78000001 		e_bl chHeapStatus
 317              	.LVL29:
 318 0038 013E     		se_mr %r30,%r3
 319              	.LVL30:
 320              		.loc 2 156 0
 321 003a 78000001 		e_bl chCoreStatus
 322              	.LVL31:
 323 003e 7080E000 		e_lis %r4,.LC3@ha
 324 0042 0135     		se_mr %r5,%r3
 325 0044 1C840000 		e_la %r4,.LC3@l(%r4)
 326 0048 01F3     		se_mr %r3,%r31
 327 004a 78000001 		e_bl chprintf
 328              	.LVL32:
 329              		.loc 2 157 0
 330 004e 01F3     		se_mr %r3,%r31
 331 0050 01E5     		se_mr %r5,%r30
 332 0052 7080E000 		e_lis %r4,.LC4@ha
 333 0056 1C840000 		e_la %r4,.LC4@l(%r4)
 334 005a 78000001 		e_bl chprintf
 335              	.LVL33:
 336              		.loc 2 158 0
 337 005e 01F3     		se_mr %r3,%r31
 338 0060 C251     		se_lwz %r5,8(%r1)
 339 0062 7080E000 		e_lis %r4,.LC5@ha
 340 0066 1C840000 		e_la %r4,.LC5@l(%r4)
 341 006a 78000001 		e_bl chprintf
 342              	.LVL34:
GAS LISTING C:\Users\thoma\AppData\Local\Temp\ccs6bbmE.s 			page 7


 343              	.LBE5:
 344              	.LBE4:
 345              		.loc 2 159 0
 346 006e C901     		se_lwz %r0,36(%r1)
 347 0070 0090     		se_mtlr %r0
 348              		.cfi_restore 65
 349 0072 1BC10818 		e_lmw %r30,24(%r1)
 350              	.LVL35:
 351 0076 21F1     		se_addi %r1,32
 352              	.LCFI9:
 353              		.cfi_restore 30
 354              		.cfi_restore 31
 355              		.cfi_def_cfa_offset 0
 356 0078 0004     		se_blr
 357              		.cfi_endproc
 358              	.LFE48:
 359              		.size	cmd_mem, .-cmd_mem
 360              		.section	.text.stopgps,"axv",@progbits
 361              		.align 1
 362              		.p2align 4,,15
 363              		.globl stopgps
 364              		.type	stopgps, @function
 365              	stopgps:
 366              	.LFB52:
 367              		.loc 2 232 0
 368              		.cfi_startproc
 369              	.LVL36:
 370 0000 182106F0 		e_stwu %r1,-16(%r1)
 371              	.LCFI10:
 372              		.cfi_def_cfa_offset 16
 373 0004 0080     		se_mflr %r0
 374 0006 1BC10908 		e_stmw %r30,8(%r1)
 375 000a D501     		se_stw %r0,20(%r1)
 376              		.cfi_offset 65, 4
 377              		.cfi_offset 30, -8
 378              		.cfi_offset 31, -4
 379              		.loc 2 235 0
 380 000c 1824A800 		e_cmpi %cr1,%r4,0
 381 0010 7A150020 		e_bgt %cr1,.L42
 382              	.LVL37:
 383              	.LBB8:
 384              	.LBB9:
 385              		.loc 2 243 0
 386 0014 73E0E000 		e_lis %r31,bGpsRunning@ha
 387 0018 313F0000 		e_lbz %r9,bGpsRunning@l(%r31)
 388 001c 1829A800 		e_cmpi %cr1,%r9,0
 389 0020 7A060026 		e_bne %cr1,.L43
 390              	.LVL38:
 391              	.L33:
 392              	.LBE9:
 393              	.LBE8:
 394              		.loc 2 250 0
 395 0024 C501     		se_lwz %r0,20(%r1)
 396 0026 0090     		se_mtlr %r0
 397              		.cfi_remember_state
 398              		.cfi_restore 65
 399 0028 1BC10808 		e_lmw %r30,8(%r1)
GAS LISTING C:\Users\thoma\AppData\Local\Temp\ccs6bbmE.s 			page 8


 400 002c 20F1     		se_addi %r1,16
 401              	.LCFI11:
 402              		.cfi_restore 31
 403              		.cfi_restore 30
 404              		.cfi_def_cfa_offset 0
 405 002e 0004     		se_blr
 406              	.LVL39:
 407              	.L42:
 408              	.LCFI12:
 409              		.cfi_restore_state
 410 0030 C501     		se_lwz %r0,20(%r1)
 411 0032 1BC10808 		e_lmw %r30,8(%r1)
 412              		.loc 2 236 0
 413 0036 7080E000 		e_lis %r4,.LC6@ha
 414              	.LVL40:
 415              		.loc 2 250 0
 416              		.loc 2 236 0
 417 003a 1C840000 		e_la %r4,.LC6@l(%r4)
 418              		.loc 2 250 0
 419 003e 0090     		se_mtlr %r0
 420              		.cfi_remember_state
 421              		.cfi_restore 65
 422 0040 20F1     		se_addi %r1,16
 423              	.LCFI13:
 424              		.cfi_restore 31
 425              		.cfi_restore 30
 426              		.cfi_def_cfa_offset 0
 427              	.LBB14:
 428              	.LBB10:
 429              		.loc 2 248 0
 430 0042 78000000 		e_b chprintf
 431              	.LVL41:
 432              	.L43:
 433              	.LCFI14:
 434              		.cfi_restore_state
 435              		.loc 2 244 0
 436 0046 71200000 		e_li %r9,0
 437 004a 013E     		se_mr %r30,%r3
 438 004c 353F0000 		e_stb %r9,bGpsRunning@l(%r31)
 439              		.loc 2 245 0
 440 0050 7080E000 		e_lis %r4,.LC7@ha
 441              	.LVL42:
 442 0054 1C840000 		e_la %r4,.LC7@l(%r4)
 443 0058 78000001 		e_bl chprintf
 444              	.LVL43:
 445              		.loc 2 247 0
 446 005c 313F0000 		e_lbz %r9,bGpsRunning@l(%r31)
 447 0060 1829A800 		e_cmpi %cr1,%r9,0
 448 0064 7A16FFC0 		e_beq %cr1,.L33
 449              	.LBE10:
 450              	.LBE14:
 451              		.loc 2 250 0
 452 0068 C501     		se_lwz %r0,20(%r1)
 453              	.LBB15:
 454              	.LBB11:
 455              		.loc 2 248 0
 456 006a 01E3     		se_mr %r3,%r30
GAS LISTING C:\Users\thoma\AppData\Local\Temp\ccs6bbmE.s 			page 9


 457 006c 7080E000 		e_lis %r4,.LC8@ha
 458              	.LBE11:
 459              	.LBE15:
 460              		.loc 2 250 0
 461 0070 1BC10808 		e_lmw %r30,8(%r1)
 462              	.LVL44:
 463              	.LBB16:
 464              	.LBB12:
 465              		.loc 2 248 0
 466 0074 1C840000 		e_la %r4,.LC8@l(%r4)
 467              	.LBE12:
 468              	.LBE16:
 469              		.loc 2 250 0
 470 0078 0090     		se_mtlr %r0
 471              		.cfi_restore 65
 472 007a 20F1     		se_addi %r1,16
 473              	.LCFI15:
 474              		.cfi_restore 30
 475              		.cfi_restore 31
 476              		.cfi_def_cfa_offset 0
 477              	.LBB17:
 478              	.LBB13:
 479              		.loc 2 248 0
 480 007c 78000000 		e_b chprintf
 481              	.LVL45:
 482              	.LBE13:
 483              	.LBE17:
 484              		.cfi_endproc
 485              	.LFE52:
 486              		.size	stopgps, .-stopgps
 487              		.section	.text.speed,"axv",@progbits
 488              		.align 1
 489              		.p2align 4,,15
 490              		.globl speed
 491              		.type	speed, @function
 492              	speed:
 493              	.LFB53:
 494              		.loc 2 255 0
 495              		.cfi_startproc
 496              	.LVL46:
 497              		.loc 2 258 0
 498 0000 1824A800 		e_cmpi %cr1,%r4,0
 499 0004 7A050010 		e_ble %cr1,.L45
 500              		.loc 2 259 0
 501 0008 7080E000 		e_lis %r4,.LC9@ha
 502              	.LVL47:
 503              		.loc 2 267 0
 504              		.loc 2 259 0
 505 000c 1C840000 		e_la %r4,.LC9@l(%r4)
 506 0010 78000000 		e_b chprintf
 507              	.LVL48:
 508              	.L45:
 509              	.LBB20:
 510              	.LBB21:
 511              		.loc 2 266 0
 512 0014 7080E000 		e_lis %r4,.LC10@ha
 513              	.LVL49:
GAS LISTING C:\Users\thoma\AppData\Local\Temp\ccs6bbmE.s 			page 10


 514 0018 7120E000 		e_lis %r9,counter@ha
 515 001c 1C840000 		e_la %r4,.LC10@l(%r4)
 516 0020 50A90000 		e_lwz %r5,counter@l(%r9)
 517              	.LVL50:
 518              	.LBE21:
 519              	.LBE20:
 520              		.loc 2 267 0
 521              	.LBB23:
 522              	.LBB22:
 523              		.loc 2 266 0
 524 0024 78000000 		e_b chprintf
 525              	.LVL51:
 526              	.LBE22:
 527              	.LBE23:
 528              		.cfi_endproc
 529              	.LFE53:
 530              		.size	speed, .-speed
 531              		.section	.text.cmd_threads,"axv",@progbits
 532              		.align 1
 533              		.p2align 4,,15
 534              		.globl cmd_threads
 535              		.type	cmd_threads, @function
 536              	cmd_threads:
 537              	.LFB49:
 538              		.loc 2 164 0
 539              		.cfi_startproc
 540              	.LVL52:
 541 0000 182106E8 		e_stwu %r1,-24(%r1)
 542              	.LCFI16:
 543              		.cfi_def_cfa_offset 24
 544 0004 0080     		se_mflr %r0
 545 0006 1B810908 		e_stmw %r28,8(%r1)
 546 000a D701     		se_stw %r0,28(%r1)
 547              		.cfi_offset 65, 4
 548              		.cfi_offset 28, -16
 549              		.cfi_offset 29, -12
 550              		.cfi_offset 30, -8
 551              		.cfi_offset 31, -4
 552              		.loc 2 164 0
 553 000c 013E     		se_mr %r30,%r3
 554              		.loc 2 169 0
 555 000e 1824A800 		e_cmpi %cr1,%r4,0
 556 0012 7A05001A 		e_ble %cr1,.L47
 557              		.loc 2 182 0
 558 0016 C701     		se_lwz %r0,28(%r1)
 559 0018 1B810808 		e_lmw %r28,8(%r1)
 560              		.loc 2 170 0
 561 001c 7080E000 		e_lis %r4,.LC11@ha
 562              	.LVL53:
 563              		.loc 2 182 0
 564              		.loc 2 170 0
 565 0020 1C840000 		e_la %r4,.LC11@l(%r4)
 566              		.loc 2 182 0
 567 0024 0090     		se_mtlr %r0
 568              		.cfi_remember_state
 569              		.cfi_restore 65
 570 0026 2171     		se_addi %r1,24
GAS LISTING C:\Users\thoma\AppData\Local\Temp\ccs6bbmE.s 			page 11


 571              	.LCFI17:
 572              		.cfi_restore 31
 573              		.cfi_restore 30
 574              		.cfi_restore 29
 575              		.cfi_restore 28
 576              		.cfi_def_cfa_offset 0
 577              		.loc 2 170 0
 578 0028 78000000 		e_b chprintf
 579              	.LVL54:
 580              	.L47:
 581              	.LCFI18:
 582              		.cfi_restore_state
 583              	.LBB26:
 584              	.LBB27:
 585              		.loc 2 173 0
 586 002c 7080E000 		e_lis %r4,.LC12@ha
 587              	.LVL55:
 588 0030 7380E000 		e_lis %r28,.LC13@ha
 589 0034 1C840000 		e_la %r4,.LC12@l(%r4)
 590 0038 73A0E000 		e_lis %r29,.LANCHOR1@ha
 591 003c 78000001 		e_bl chprintf
 592              	.LVL56:
 593 0040 1F9C0000 		e_la %r28,.LC13@l(%r28)
 594              		.loc 2 174 0
 595 0044 78000001 		e_bl chRegFirstThread
 596              	.LVL57:
 597 0048 1FBD0000 		e_la %r29,.LANCHOR1@l(%r29)
 598 004c 013F     		se_mr %r31,%r3
 599              	.LVL58:
 600              	.L48:
 601              		.loc 2 176 0
 602 004e 515F0020 		e_lwz %r10,32(%r31)
 603              		.loc 2 178 0
 604 0052 311F001E 		e_lbz %r8,30(%r31)
 605              		.loc 2 176 0
 606 0056 313F001C 		e_lbz %r9,28(%r31)
 607 005a 01F5     		se_mr %r5,%r31
 608 005c C36F     		se_lwz %r6,12(%r31)
 609 005e C27F     		se_lwz %r7,8(%r31)
 610 0060 01E3     		se_mr %r3,%r30
 611              	.LVL59:
 612 0062 01C4     		se_mr %r4,%r28
 613 0064 190884FF 		e_addi %r8,%r8,-1
 614 0068 7D291070 		e_slwi %r9,%r9,2
 615 006c 7D3D482E 		lwzx %r9,%r29,%r9
 616 0070 78000001 		e_bl chprintf
 617              	.LVL60:
 618              		.loc 2 180 0
 619 0074 01F3     		se_mr %r3,%r31
 620 0076 78000001 		e_bl chRegNextThread
 621              	.LVL61:
 622              		.loc 2 181 0
 623 007a 013F     		se_mr %r31,%r3
 624 007c 2A0F     		se_cmpi %r31,0
 625 007e 7A02FFD0 		e_bne %cr0,.L48
 626              	.LBE27:
 627              	.LBE26:
GAS LISTING C:\Users\thoma\AppData\Local\Temp\ccs6bbmE.s 			page 12


 628              		.loc 2 182 0
 629 0082 C701     		se_lwz %r0,28(%r1)
 630 0084 0090     		se_mtlr %r0
 631              		.cfi_restore 65
 632 0086 1B810808 		e_lmw %r28,8(%r1)
 633              	.LVL62:
 634 008a 2171     		se_addi %r1,24
 635              	.LCFI19:
 636              		.cfi_restore 31
 637              		.cfi_restore 30
 638              		.cfi_restore 29
 639              		.cfi_restore 28
 640              		.cfi_def_cfa_offset 0
 641 008c 0004     		se_blr
 642              		.cfi_endproc
 643              	.LFE49:
 644              		.size	cmd_threads, .-cmd_threads
 645              		.section	.text.startgps,"axv",@progbits
 646              		.align 1
 647              		.p2align 4,,15
 648              		.globl startgps
 649              		.type	startgps, @function
 650              	startgps:
 651              	.LFB51:
 652              		.loc 2 207 0
 653              		.cfi_startproc
 654              	.LVL63:
 655 0000 182106F8 		e_stwu %r1,-8(%r1)
 656              	.LCFI20:
 657              		.cfi_def_cfa_offset 8
 658 0004 0080     		se_mflr %r0
 659              		.loc 2 210 0
 660 0006 1824A800 		e_cmpi %cr1,%r4,0
 661              		.loc 2 207 0
 662 000a D301     		se_stw %r0,12(%r1)
 663              		.cfi_offset 65, 4
 664              		.loc 2 210 0
 665 000c 7A15006C 		e_bgt %cr1,.L56
 666              		.loc 2 218 0
 667 0010 7140E000 		e_lis %r10,bGpsRunning@ha
 668 0014 312A0000 		e_lbz %r9,bGpsRunning@l(%r10)
 669 0018 1829A800 		e_cmpi %cr1,%r9,0
 670 001c 7A160016 		e_beq %cr1,.L57
 671              		.loc 2 227 0
 672 0020 C301     		se_lwz %r0,12(%r1)
 673              		.loc 2 225 0
 674 0022 7080E000 		e_lis %r4,.LC16@ha
 675              	.LVL64:
 676              		.loc 2 227 0
 677              		.loc 2 225 0
 678 0026 1C840000 		e_la %r4,.LC16@l(%r4)
 679              		.loc 2 227 0
 680 002a 0090     		se_mtlr %r0
 681              		.cfi_remember_state
 682              		.cfi_restore 65
 683 002c 2071     		se_addi %r1,8
 684              	.LCFI21:
GAS LISTING C:\Users\thoma\AppData\Local\Temp\ccs6bbmE.s 			page 13


 685              		.cfi_def_cfa_offset 0
 686              		.loc 2 225 0
 687 002e 78000000 		e_b chprintf
 688              	.LVL65:
 689              	.L57:
 690              	.LCFI22:
 691              		.cfi_restore_state
 692              	.LBB30:
 693              	.LBB31:
 694              		.loc 2 219 0
 695 0032 71200001 		e_li %r9,1
 696              		.loc 2 220 0
 697 0036 7080E000 		e_lis %r4,.LC15@ha
 698              	.LVL66:
 699              		.loc 2 219 0
 700 003a 352A0000 		e_stb %r9,bGpsRunning@l(%r10)
 701              		.loc 2 220 0
 702 003e 1C840000 		e_la %r4,.LC15@l(%r4)
 703 0042 78000001 		e_bl chprintf
 704              	.LVL67:
 705              		.loc 2 221 0
 706 0046 7060E000 		e_lis %r3,waThreadGPS@ha
 707 004a 70800268 		e_li %r4,616
 708 004e 1C630000 		e_la %r3,waThreadGPS@l(%r3)
 709 0052 4C05     		se_li %r5,64
 710 0054 70C0E000 		e_lis %r6,ThreadGPS@ha
 711 0058 70E0E000 		e_lis %r7,SD2@ha
 712 005c 1CC60000 		e_la %r6,ThreadGPS@l(%r6)
 713 0060 1CE70000 		e_la %r7,SD2@l(%r7)
 714 0064 78000001 		e_bl chThdCreateStatic
 715              	.LVL68:
 716              	.LBE31:
 717              	.LBE30:
 718              		.loc 2 227 0
 719 0068 C301     		se_lwz %r0,12(%r1)
 720 006a 0090     		se_mtlr %r0
 721              		.cfi_remember_state
 722              		.cfi_restore 65
 723              	.LBB34:
 724              	.LBB32:
 725              		.loc 2 221 0
 726 006c 7120E000 		e_lis %r9,tpgps@ha
 727              	.LBE32:
 728              	.LBE34:
 729              		.loc 2 227 0
 730              	.LBB35:
 731              	.LBB33:
 732              		.loc 2 221 0
 733 0070 54690000 		e_stw %r3,tpgps@l(%r9)
 734              	.LBE33:
 735              	.LBE35:
 736              		.loc 2 227 0
 737 0074 2071     		se_addi %r1,8
 738              	.LCFI23:
 739              		.cfi_def_cfa_offset 0
 740 0076 0004     		se_blr
 741              	.LVL69:
GAS LISTING C:\Users\thoma\AppData\Local\Temp\ccs6bbmE.s 			page 14


 742              	.L56:
 743              	.LCFI24:
 744              		.cfi_restore_state
 745 0078 C301     		se_lwz %r0,12(%r1)
 746              		.loc 2 211 0
 747 007a 7080E000 		e_lis %r4,.LC14@ha
 748              	.LVL70:
 749              		.loc 2 227 0
 750              		.loc 2 211 0
 751 007e 1C840000 		e_la %r4,.LC14@l(%r4)
 752              		.loc 2 227 0
 753 0082 0090     		se_mtlr %r0
 754              		.cfi_restore 65
 755 0084 2071     		se_addi %r1,8
 756              	.LCFI25:
 757              		.cfi_def_cfa_offset 0
 758              		.loc 2 225 0
 759 0086 78000000 		e_b chprintf
 760              	.LVL71:
 761              		.cfi_endproc
 762              	.LFE51:
 763              		.size	startgps, .-startgps
 764              		.section	.text.startdemo,"axv",@progbits
 765              		.align 1
 766              		.p2align 4,,15
 767              		.globl startdemo
 768              		.type	startdemo, @function
 769              	startdemo:
 770              	.LFB58:
 771              		.loc 2 361 0
 772              		.cfi_startproc
 773              	.LVL72:
 774              		.loc 2 361 0
 775 0000 0137     		se_mr %r7,%r3
 776              		.loc 2 364 0
 777 0002 1824A800 		e_cmpi %cr1,%r4,0
 778 0006 7A060042 		e_bne %cr1,.L61
 779              		.loc 2 369 0
 780 000a 7140E000 		e_lis %r10,.LANCHOR0@ha
 781 000e 312A0000 		e_lbz %r9,.LANCHOR0@l(%r10)
 782 0012 1829A800 		e_cmpi %cr1,%r9,0
 783 0016 7A160010 		e_beq %cr1,.L62
 784              		.loc 2 378 0
 785 001a 7080E000 		e_lis %r4,.LC18@ha
 786              	.LVL73:
 787              		.loc 2 381 0
 788              		.loc 2 378 0
 789 001e 1C840000 		e_la %r4,.LC18@l(%r4)
 790 0022 78000000 		e_b chprintf
 791              	.LVL74:
 792              	.L62:
 793              	.LBB38:
 794              	.LBB39:
 795              		.loc 2 370 0
 796 0026 71200001 		e_li %r9,1
 797              		.loc 2 374 0
 798 002a 7060E000 		e_lis %r3,.LANCHOR2@ha
GAS LISTING C:\Users\thoma\AppData\Local\Temp\ccs6bbmE.s 			page 15


 799              	.LVL75:
 800 002e 70C0E000 		e_lis %r6,ThreadFullDemo@ha
 801              		.loc 2 370 0
 802 0032 352A0000 		e_stb %r9,.LANCHOR0@l(%r10)
 803              		.loc 2 374 0
 804 0036 1C630000 		e_la %r3,.LANCHOR2@l(%r3)
 805 003a 70800268 		e_li %r4,616
 806              	.LVL76:
 807 003e 4C05     		se_li %r5,64
 808              	.LVL77:
 809 0040 1CC60000 		e_la %r6,ThreadFullDemo@l(%r6)
 810              	.LBE39:
 811              	.LBE38:
 812              		.loc 2 381 0
 813              	.LBB41:
 814              	.LBB40:
 815              		.loc 2 374 0
 816 0044 78000000 		e_b chThdCreateStatic
 817              	.LVL78:
 818              	.L61:
 819              	.LBE40:
 820              	.LBE41:
 821              		.loc 2 365 0
 822 0048 7080E000 		e_lis %r4,.LC17@ha
 823              	.LVL79:
 824              		.loc 2 381 0
 825              		.loc 2 365 0
 826 004c 1C840000 		e_la %r4,.LC17@l(%r4)
 827 0050 78000000 		e_b chprintf
 828              	.LVL80:
 829              		.cfi_endproc
 830              	.LFE58:
 831              		.size	startdemo, .-startdemo
 832              		.section	.text.lightBlue,"axv",@progbits
 833              		.align 1
 834              		.p2align 4,,15
 835              		.globl lightBlue
 836              		.type	lightBlue, @function
 837              	lightBlue:
 838              	.LFB55:
 839              		.loc 2 298 0
 840              		.cfi_startproc
 841              	.LVL81:
 842 0000 182106F8 		e_stwu %r1,-8(%r1)
 843              	.LCFI26:
 844              		.cfi_def_cfa_offset 8
 845 0004 0080     		se_mflr %r0
 846              		.loc 2 303 0
 847 0006 1824A801 		e_cmpi %cr1,%r4,1
 848              		.loc 2 298 0
 849 000a D301     		se_stw %r0,12(%r1)
 850              		.cfi_offset 65, 4
 851              		.loc 2 303 0
 852 000c 7A160016 		e_beq %cr1,.L64
 853              		.loc 2 314 0
 854 0010 C301     		se_lwz %r0,12(%r1)
 855              		.loc 2 304 0
GAS LISTING C:\Users\thoma\AppData\Local\Temp\ccs6bbmE.s 			page 16


 856 0012 7080E000 		e_lis %r4,.LC19@ha
 857              	.LVL82:
 858              		.loc 2 314 0
 859              		.loc 2 304 0
 860 0016 1C840000 		e_la %r4,.LC19@l(%r4)
 861              		.loc 2 314 0
 862 001a 0090     		se_mtlr %r0
 863              		.cfi_remember_state
 864              		.cfi_restore 65
 865 001c 2071     		se_addi %r1,8
 866              	.LCFI27:
 867              		.cfi_def_cfa_offset 0
 868              		.loc 2 304 0
 869 001e 78000000 		e_b chprintf
 870              	.LVL83:
 871              	.L64:
 872              	.LCFI28:
 873              		.cfi_restore_state
 874              	.LBB44:
 875              	.LBB45:
 876              		.loc 2 308 0
 877 0022 C035     		se_lwz %r3,0(%r5)
 878              	.LVL84:
 879 0024 78000001 		e_bl atoi
 880              	.LVL85:
 881              		.loc 2 311 0
 882 0028 1823A801 		e_cmpi %cr1,%r3,1
 883 002c 7A160018 		e_beq %cr1,.L67
 884              		.loc 2 312 0
 885 0030 71400000 		e_li %r10,0
 886 0034 7138E3F9 		e_lis %r9,0xc3f9
 887 0038 35490624 		e_stb %r10,1572(%r9)
 888              	.L63:
 889              	.LBE45:
 890              	.LBE44:
 891              		.loc 2 314 0
 892 003c C301     		se_lwz %r0,12(%r1)
 893 003e 0090     		se_mtlr %r0
 894              		.cfi_remember_state
 895              		.cfi_restore 65
 896 0040 2071     		se_addi %r1,8
 897              	.LCFI29:
 898              		.cfi_def_cfa_offset 0
 899 0042 0004     		se_blr
 900              	.L67:
 901              	.LCFI30:
 902              		.cfi_restore_state
 903              	.LBB47:
 904              	.LBB46:
 905              		.loc 2 311 0
 906 0044 7138E3F9 		e_lis %r9,0xc3f9
 907 0048 34690624 		e_stb %r3,1572(%r9)
 908 004c 79FFFFF0 		e_b .L63
 909              	.LBE46:
 910              	.LBE47:
 911              		.cfi_endproc
 912              	.LFE55:
GAS LISTING C:\Users\thoma\AppData\Local\Temp\ccs6bbmE.s 			page 17


 913              		.size	lightBlue, .-lightBlue
 914              		.section	.text.blink,"axv",@progbits
 915              		.align 1
 916              		.p2align 4,,15
 917              		.globl blink
 918              		.type	blink, @function
 919              	blink:
 920              	.LFB57:
 921              		.loc 2 338 0
 922              		.cfi_startproc
 923              	.LVL86:
 924 0000 182106F8 		e_stwu %r1,-8(%r1)
 925              	.LCFI31:
 926              		.cfi_def_cfa_offset 8
 927 0004 0080     		se_mflr %r0
 928              		.loc 2 343 0
 929 0006 1824A800 		e_cmpi %cr1,%r4,0
 930              		.loc 2 338 0
 931 000a D301     		se_stw %r0,12(%r1)
 932              		.cfi_offset 65, 4
 933              		.loc 2 343 0
 934 000c 7A160034 		e_beq %cr1,.L72
 935              	.LVL87:
 936              	.LBB50:
 937              	.LBB51:
 938              		.loc 2 348 0
 939 0010 C035     		se_lwz %r3,0(%r5)
 940              	.LVL88:
 941 0012 78000001 		e_bl atoi
 942              	.LVL89:
 943              		.loc 2 350 0
 944 0016 2A03     		se_cmpi %r3,0
 945 0018 7A020014 		e_bne %cr0,.L73
 946              	.LBE51:
 947              	.LBE50:
 948              		.loc 2 356 0
 949 001c C301     		se_lwz %r0,12(%r1)
 950 001e 0090     		se_mtlr %r0
 951              		.cfi_remember_state
 952              		.cfi_restore 65
 953              	.LBB56:
 954              	.LBB52:
 955              		.loc 2 354 0
 956 0020 7120E000 		e_lis %r9,bLightOn@ha
 957              	.LBE52:
 958              	.LBE56:
 959              		.loc 2 356 0
 960              	.LBB57:
 961              	.LBB53:
 962              		.loc 2 354 0
 963 0024 34690000 		e_stb %r3,bLightOn@l(%r9)
 964              	.LBE53:
 965              	.LBE57:
 966              		.loc 2 356 0
 967 0028 2071     		se_addi %r1,8
 968              	.LCFI32:
 969              		.cfi_def_cfa_offset 0
GAS LISTING C:\Users\thoma\AppData\Local\Temp\ccs6bbmE.s 			page 18


 970 002a 0004     		se_blr
 971              	.L73:
 972              	.LCFI33:
 973              		.cfi_restore_state
 974 002c C301     		se_lwz %r0,12(%r1)
 975 002e 0090     		se_mtlr %r0
 976              		.cfi_remember_state
 977              		.cfi_restore 65
 978              	.LBB58:
 979              	.LBB54:
 980              		.loc 2 351 0
 981 0030 71400001 		e_li %r10,1
 982 0034 7120E000 		e_lis %r9,bLightOn@ha
 983              	.LBE54:
 984              	.LBE58:
 985              		.loc 2 356 0
 986              	.LBB59:
 987              	.LBB55:
 988              		.loc 2 351 0
 989 0038 35490000 		e_stb %r10,bLightOn@l(%r9)
 990              	.LBE55:
 991              	.LBE59:
 992              		.loc 2 356 0
 993 003c 2071     		se_addi %r1,8
 994              	.LCFI34:
 995              		.cfi_def_cfa_offset 0
 996 003e 0004     		se_blr
 997              	.LVL90:
 998              	.L72:
 999              	.LCFI35:
 1000              		.cfi_restore_state
 1001 0040 C301     		se_lwz %r0,12(%r1)
 1002              		.loc 2 344 0
 1003 0042 7080E000 		e_lis %r4,.LC20@ha
 1004              	.LVL91:
 1005              		.loc 2 356 0
 1006              		.loc 2 344 0
 1007 0046 1C840000 		e_la %r4,.LC20@l(%r4)
 1008              		.loc 2 356 0
 1009 004a 0090     		se_mtlr %r0
 1010              		.cfi_restore 65
 1011 004c 2071     		se_addi %r1,8
 1012              	.LCFI36:
 1013              		.cfi_def_cfa_offset 0
 1014              		.loc 2 344 0
 1015 004e 78000000 		e_b chprintf
 1016              	.LVL92:
 1017              		.cfi_endproc
 1018              	.LFE57:
 1019              		.size	blink, .-blink
 1020              		.section	.text.drive,"axv",@progbits
 1021              		.align 1
 1022              		.p2align 4,,15
 1023              		.globl drive
 1024              		.type	drive, @function
 1025              	drive:
 1026              	.LFB54:
GAS LISTING C:\Users\thoma\AppData\Local\Temp\ccs6bbmE.s 			page 19


 1027              		.loc 2 272 0
 1028              		.cfi_startproc
 1029              	.LVL93:
 1030 0000 182106E8 		e_stwu %r1,-24(%r1)
 1031              	.LCFI37:
 1032              		.cfi_def_cfa_offset 24
 1033 0004 0080     		se_mflr %r0
 1034 0006 1BA1090C 		e_stmw %r29,12(%r1)
 1035 000a D701     		se_stw %r0,28(%r1)
 1036              		.cfi_offset 65, 4
 1037              		.cfi_offset 29, -12
 1038              		.cfi_offset 30, -8
 1039              		.cfi_offset 31, -4
 1040              		.loc 2 278 0
 1041 000c 1824A802 		e_cmpi %cr1,%r4,2
 1042 0010 7A16001A 		e_beq %cr1,.L75
 1043              		.loc 2 293 0
 1044 0014 C701     		se_lwz %r0,28(%r1)
 1045 0016 1BA1080C 		e_lmw %r29,12(%r1)
 1046              		.loc 2 279 0
 1047 001a 7080E000 		e_lis %r4,.LC21@ha
 1048              	.LVL94:
 1049              		.loc 2 293 0
 1050              		.loc 2 279 0
 1051 001e 1C840000 		e_la %r4,.LC21@l(%r4)
 1052              		.loc 2 293 0
 1053 0022 0090     		se_mtlr %r0
 1054              		.cfi_remember_state
 1055              		.cfi_restore 65
 1056 0024 2171     		se_addi %r1,24
 1057              	.LCFI38:
 1058              		.cfi_restore 31
 1059              		.cfi_restore 30
 1060              		.cfi_restore 29
 1061              		.cfi_def_cfa_offset 0
 1062              	.LBB62:
 1063              	.LBB63:
 1064              		.loc 2 287 0
 1065 0026 78000000 		e_b chprintf
 1066              	.LVL95:
 1067              	.L75:
 1068              	.LCFI39:
 1069              		.cfi_restore_state
 1070 002a 015F     		se_mr %r31,%r5
 1071 002c 013E     		se_mr %r30,%r3
 1072              	.LVL96:
 1073              		.loc 2 283 0
 1074 002e C035     		se_lwz %r3,0(%r5)
 1075              	.LVL97:
 1076 0030 78000001 		e_bl atoi
 1077              	.LVL98:
 1078 0034 013D     		se_mr %r29,%r3
 1079              	.LVL99:
 1080              		.loc 2 284 0
 1081 0036 C13F     		se_lwz %r3,4(%r31)
 1082              	.LVL100:
 1083 0038 78000001 		e_bl atoi
GAS LISTING C:\Users\thoma\AppData\Local\Temp\ccs6bbmE.s 			page 20


 1084              	.LVL101:
 1085 003c 0134     		se_mr %r4,%r3
 1086              	.LVL102:
 1087              		.loc 2 286 0
 1088 003e 7083AF10 		e_cmpl16i %r3,10000
 1089 0042 7A110014 		e_bgt %cr0,.L78
 1090              	.LBE63:
 1091              	.LBE62:
 1092              		.loc 2 293 0
 1093 0046 C701     		se_lwz %r0,28(%r1)
 1094              	.LBB69:
 1095              	.LBB64:
 1096              		.loc 2 290 0
 1097 0048 01D3     		se_mr %r3,%r29
 1098              	.LVL103:
 1099              	.LBE64:
 1100              	.LBE69:
 1101              		.loc 2 293 0
 1102 004a 0090     		se_mtlr %r0
 1103              		.cfi_remember_state
 1104              		.cfi_restore 65
 1105 004c 1BA1080C 		e_lmw %r29,12(%r1)
 1106              	.LVL104:
 1107 0050 2171     		se_addi %r1,24
 1108              	.LCFI40:
 1109              		.cfi_restore 31
 1110              		.cfi_restore 30
 1111              		.cfi_restore 29
 1112              		.cfi_def_cfa_offset 0
 1113              	.LBB70:
 1114              	.LBB65:
 1115              		.loc 2 290 0
 1116 0052 78000000 		e_b drivecmd
 1117              	.LVL105:
 1118              	.L78:
 1119              	.LCFI41:
 1120              		.cfi_restore_state
 1121              	.LBE65:
 1122              	.LBE70:
 1123              		.loc 2 293 0
 1124 0056 C701     		se_lwz %r0,28(%r1)
 1125              	.LBB71:
 1126              	.LBB66:
 1127              		.loc 2 287 0
 1128 0058 01E3     		se_mr %r3,%r30
 1129              	.LVL106:
 1130 005a 7080E000 		e_lis %r4,.LC22@ha
 1131              	.LVL107:
 1132              	.LBE66:
 1133              	.LBE71:
 1134              		.loc 2 293 0
 1135 005e 1BA1080C 		e_lmw %r29,12(%r1)
 1136              	.LVL108:
 1137              	.LBB72:
 1138              	.LBB67:
 1139              		.loc 2 287 0
 1140 0062 1C840000 		e_la %r4,.LC22@l(%r4)
GAS LISTING C:\Users\thoma\AppData\Local\Temp\ccs6bbmE.s 			page 21


 1141              	.LBE67:
 1142              	.LBE72:
 1143              		.loc 2 293 0
 1144 0066 0090     		se_mtlr %r0
 1145              		.cfi_restore 65
 1146 0068 2171     		se_addi %r1,24
 1147              	.LCFI42:
 1148              		.cfi_restore 29
 1149              		.cfi_restore 30
 1150              		.cfi_restore 31
 1151              		.cfi_def_cfa_offset 0
 1152              	.LBB73:
 1153              	.LBB68:
 1154              		.loc 2 287 0
 1155 006a 78000000 		e_b chprintf
 1156              	.LVL109:
 1157              	.LBE68:
 1158              	.LBE73:
 1159              		.cfi_endproc
 1160              	.LFE54:
 1161              		.size	drive, .-drive
 1162              		.section	.text.turn,"axv",@progbits
 1163              		.align 1
 1164              		.p2align 4,,15
 1165              		.globl turn
 1166              		.type	turn, @function
 1167              	turn:
 1168              	.LFB56:
 1169              		.loc 2 319 0
 1170              		.cfi_startproc
 1171              	.LVL110:
 1172 0000 182106F8 		e_stwu %r1,-8(%r1)
 1173              	.LCFI43:
 1174              		.cfi_def_cfa_offset 8
 1175 0004 0080     		se_mflr %r0
 1176              		.loc 2 324 0
 1177 0006 1824A801 		e_cmpi %cr1,%r4,1
 1178              		.loc 2 319 0
 1179 000a D301     		se_stw %r0,12(%r1)
 1180              		.cfi_offset 65, 4
 1181              		.loc 2 324 0
 1182 000c 7A160016 		e_beq %cr1,.L80
 1183              		.loc 2 333 0
 1184 0010 C301     		se_lwz %r0,12(%r1)
 1185              		.loc 2 325 0
 1186 0012 7080E000 		e_lis %r4,.LC23@ha
 1187              	.LVL111:
 1188              		.loc 2 333 0
 1189              		.loc 2 325 0
 1190 0016 1C840000 		e_la %r4,.LC23@l(%r4)
 1191              		.loc 2 333 0
 1192 001a 0090     		se_mtlr %r0
 1193              		.cfi_remember_state
 1194              		.cfi_restore 65
 1195 001c 2071     		se_addi %r1,8
 1196              	.LCFI44:
 1197              		.cfi_def_cfa_offset 0
GAS LISTING C:\Users\thoma\AppData\Local\Temp\ccs6bbmE.s 			page 22


 1198              		.loc 2 325 0
 1199 001e 78000000 		e_b chprintf
 1200              	.LVL112:
 1201              	.L80:
 1202              	.LCFI45:
 1203              		.cfi_restore_state
 1204              	.LBB76:
 1205              	.LBB77:
 1206              		.loc 2 329 0
 1207 0022 C035     		se_lwz %r3,0(%r5)
 1208              	.LVL113:
 1209 0024 78000001 		e_bl atoi
 1210              	.LVL114:
 1211              	.LBE77:
 1212              	.LBE76:
 1213              		.loc 2 333 0
 1214 0028 C301     		se_lwz %r0,12(%r1)
 1215 002a 0090     		se_mtlr %r0
 1216              		.cfi_restore 65
 1217 002c 2071     		se_addi %r1,8
 1218              	.LCFI46:
 1219              		.cfi_def_cfa_offset 0
 1220              	.LBB79:
 1221              	.LBB78:
 1222              		.loc 2 332 0
 1223 002e 78000000 		e_b turncmd
 1224              	.LVL115:
 1225              	.LBE78:
 1226              	.LBE79:
 1227              		.cfi_endproc
 1228              	.LFE56:
 1229              		.size	turn, .-turn
 1230              		.section	.text.cmd_at,"axv",@progbits
 1231              		.align 1
 1232              		.p2align 4,,15
 1233              		.type	cmd_at, @function
 1234              	cmd_at:
 1235              	.LFB50:
 1236              		.loc 2 187 0
 1237              		.cfi_startproc
 1238              	.LVL116:
 1239 0000 182106D0 		e_stwu %r1,-48(%r1)
 1240              	.LCFI47:
 1241              		.cfi_def_cfa_offset 48
 1242 0004 0080     		se_mflr %r0
 1243 0006 DBF1     		se_stw %r31,44(%r1)
 1244 0008 DD01     		se_stw %r0,52(%r1)
 1245              		.cfi_offset 65, 4
 1246              		.cfi_offset 31, -4
 1247              		.loc 2 187 0
 1248 000a 013F     		se_mr %r31,%r3
 1249 000c 0251     		se_mtar %r9,%r5
 1250              		.loc 2 192 0
 1251 000e 1824A800 		e_cmpi %cr1,%r4,0
 1252 0012 7A160038 		e_beq %cr1,.L84
 1253              		.loc 2 199 0
 1254 0016 50690000 		e_lwz %r3,0(%r9)
GAS LISTING C:\Users\thoma\AppData\Local\Temp\ccs6bbmE.s 			page 23


 1255              	.LVL117:
 1256 001a 70A003E8 		e_li %r5,1000
 1257              	.LVL118:
 1258 001e 18818008 		e_addi %r4,%r1,8
 1259              	.LVL119:
 1260 0022 78000001 		e_bl get_string
 1261              	.LVL120:
 1262              		.loc 2 200 0
 1263 0026 01F3     		se_mr %r3,%r31
 1264 0028 18818008 		e_addi %r4,%r1,8
 1265 002c 78000001 		e_bl chprintf
 1266              	.LVL121:
 1267              		.loc 2 201 0
 1268 0030 01F3     		se_mr %r3,%r31
 1269 0032 7080E000 		e_lis %r4,.LC26@ha
 1270 0036 1C840000 		e_la %r4,.LC26@l(%r4)
 1271 003a 78000001 		e_bl chprintf
 1272              	.LVL122:
 1273              		.loc 2 202 0
 1274 003e CD01     		se_lwz %r0,52(%r1)
 1275 0040 0090     		se_mtlr %r0
 1276              		.cfi_remember_state
 1277              		.cfi_restore 65
 1278 0042 CBF1     		se_lwz %r31,44(%r1)
 1279              	.LVL123:
 1280 0044 18218030 		e_addi %r1,%r1,48
 1281              	.LCFI48:
 1282              		.cfi_restore 31
 1283              		.cfi_def_cfa_offset 0
 1284 0048 0004     		se_blr
 1285              	.LVL124:
 1286              	.L84:
 1287              	.LCFI49:
 1288              		.cfi_restore_state
 1289              	.LBB82:
 1290              	.LBB83:
 1291              		.loc 2 193 0
 1292 004a 7080E000 		e_lis %r4,.LC24@ha
 1293              	.LVL125:
 1294 004e 1C840000 		e_la %r4,.LC24@l(%r4)
 1295 0052 78000001 		e_bl chprintf
 1296              	.LVL126:
 1297              		.loc 2 194 0
 1298 0056 01F3     		se_mr %r3,%r31
 1299 0058 7080E000 		e_lis %r4,.LC25@ha
 1300 005c 1C840000 		e_la %r4,.LC25@l(%r4)
 1301 0060 78000001 		e_bl chprintf
 1302              	.LVL127:
 1303              	.LBE83:
 1304              	.LBE82:
 1305              		.loc 2 202 0
 1306 0064 CD01     		se_lwz %r0,52(%r1)
 1307 0066 0090     		se_mtlr %r0
 1308              		.cfi_restore 65
 1309 0068 CBF1     		se_lwz %r31,44(%r1)
 1310              	.LVL128:
 1311 006a 18218030 		e_addi %r1,%r1,48
GAS LISTING C:\Users\thoma\AppData\Local\Temp\ccs6bbmE.s 			page 24


 1312              	.LCFI50:
 1313              		.cfi_restore 31
 1314              		.cfi_def_cfa_offset 0
 1315 006e 0004     		se_blr
 1316              		.cfi_endproc
 1317              	.LFE50:
 1318              		.size	cmd_at, .-cmd_at
 1319              		.section	.text.ThreadCarBlinker,"axv",@progbits
 1320              		.align 1
 1321              		.p2align 4,,15
 1322              		.globl ThreadCarBlinker
 1323              		.type	ThreadCarBlinker, @function
 1324              	ThreadCarBlinker:
 1325              	.LFB46:
 1326              		.loc 2 34 0
 1327              		.cfi_startproc
 1328              	.LVL129:
 1329 0000 182106E8 		e_stwu %r1,-24(%r1)
 1330              	.LCFI51:
 1331              		.cfi_def_cfa_offset 24
 1332              		.loc 2 36 0
 1333 0004 7120E000 		e_lis %r9,rlist+24@ha
 1334              		.loc 2 34 0
 1335 0008 1BA1090C 		e_stmw %r29,12(%r1)
 1336              		.loc 2 36 0
 1337 000c 51490000 		e_lwz %r10,rlist+24@l(%r9)
 1338              		.loc 2 34 0
 1339 0010 0080     		se_mflr %r0
 1340              		.cfi_offset 29, -12
 1341              		.cfi_offset 30, -8
 1342              		.cfi_offset 31, -4
 1343              		.cfi_register 65, 0
 1344              		.loc 2 38 0
 1345 0012 73C0E000 		e_lis %r30,.LANCHOR3@ha
 1346              		.loc 2 34 0
 1347 0016 D701     		se_stw %r0,28(%r1)
 1348              		.cfi_offset 65, 4
 1349              		.loc 2 36 0
 1350 0018 7120E000 		e_lis %r9,.LC27@ha
 1351 001c 1D290000 		e_la %r9,.LC27@l(%r9)
 1352 0020 552A0018 		e_stw %r9,24(%r10)
 1353              		.loc 2 38 0
 1354 0024 513E0000 		e_lwz %r9,.LANCHOR3@l(%r30)
 1355 0028 1829A800 		e_cmpi %cr1,%r9,0
 1356 002c 7A16005E 		e_beq %cr1,.L91
 1357 0030 1FDE0000 		e_la %r30,.LANCHOR3@l(%r30)
 1358              		.loc 2 46 0
 1359 0034 73F8E3F9 		e_lis %r31,0xc3f9
 1360 0038 480D     		se_li %r29,0
 1361 003a 78000028 		e_b .L90
 1362              	.LVL130:
 1363              	.L87:
 1364              		.loc 2 42 0
 1365 003e 1829A802 		e_cmpi %cr1,%r9,2
 1366 0042 7A16006C 		e_beq %cr1,.L94
 1367              		.loc 2 46 0
 1368 0046 37BF0602 		e_stb %r29,1538(%r31)
GAS LISTING C:\Users\thoma\AppData\Local\Temp\ccs6bbmE.s 			page 25


 1369              		.loc 2 47 0
 1370 004a 37BF0601 		e_stb %r29,1537(%r31)
 1371              	.L88:
 1372              		.loc 2 50 0
 1373 004e 706001F4 		e_li %r3,500
 1374 0052 78000001 		e_bl chThdSleep
 1375              	.LVL131:
 1376              		.loc 2 38 0
 1377 0056 513E0000 		e_lwz %r9,0(%r30)
 1378 005a 1829A800 		e_cmpi %cr1,%r9,0
 1379 005e 7A16002C 		e_beq %cr1,.L91
 1380              	.L90:
 1381              		.loc 2 39 0
 1382 0062 1829A801 		e_cmpi %cr1,%r9,1
 1383 0066 7A06FFD8 		e_bne %cr1,.L87
 1384              		.loc 2 40 0
 1385 006a 313F0602 		e_lbz %r9,1538(%r31)
 1386              		.loc 2 50 0
 1387 006e 706001F4 		e_li %r3,500
 1388              		.loc 2 40 0
 1389 0072 7D2948F8 		nor %r9,%r9,%r9
 1390 0076 353F0602 		e_stb %r9,1538(%r31)
 1391              		.loc 2 50 0
 1392 007a 78000001 		e_bl chThdSleep
 1393              	.LVL132:
 1394              		.loc 2 38 0
 1395 007e 513E0000 		e_lwz %r9,0(%r30)
 1396 0082 1829A800 		e_cmpi %cr1,%r9,0
 1397 0086 7A06FFDC 		e_bne %cr1,.L90
 1398              	.L91:
 1399              		.loc 2 53 0
 1400 008a 7138E3F9 		e_lis %r9,0xc3f9
 1401 008e 71400000 		e_li %r10,0
 1402              		.loc 2 56 0
 1403 0092 4803     		se_li %r3,0
 1404              		.loc 2 53 0
 1405 0094 35490602 		e_stb %r10,1538(%r9)
 1406              		.loc 2 54 0
 1407 0098 35490601 		e_stb %r10,1537(%r9)
 1408              		.loc 2 56 0
 1409 009c 78000001 		e_bl chThdExit
 1410              	.LVL133:
 1411              		.loc 2 59 0
 1412 00a0 C701     		se_lwz %r0,28(%r1)
 1413 00a2 0090     		se_mtlr %r0
 1414              		.cfi_remember_state
 1415              		.cfi_restore 65
 1416 00a4 1BA1080C 		e_lmw %r29,12(%r1)
 1417 00a8 4803     		se_li %r3,0
 1418 00aa 2171     		se_addi %r1,24
 1419              	.LCFI52:
 1420              		.cfi_restore 31
 1421              		.cfi_restore 30
 1422              		.cfi_restore 29
 1423              		.cfi_def_cfa_offset 0
 1424 00ac 0004     		se_blr
 1425              	.L94:
GAS LISTING C:\Users\thoma\AppData\Local\Temp\ccs6bbmE.s 			page 26


 1426              	.LCFI53:
 1427              		.cfi_restore_state
 1428              		.loc 2 43 0
 1429 00ae 313F0601 		e_lbz %r9,1537(%r31)
 1430 00b2 7D2948F8 		nor %r9,%r9,%r9
 1431 00b6 353F0601 		e_stb %r9,1537(%r31)
 1432 00ba 79FFFF94 		e_b .L88
 1433              		.cfi_endproc
 1434              	.LFE46:
 1435              		.size	ThreadCarBlinker, .-ThreadCarBlinker
 1436              		.globl shell_commands
 1437              		.globl waThreadCarBlinker
 1438              		.globl bFullDemoRunning
 1439              		.globl iCarBlinker
 1440              		.section	.bss.waThreadFullDemo,"aw",@nobits
 1441              		.align 3
 1442              		.set	.LANCHOR2,. + 0
 1443              		.type	waThreadFullDemo, @object
 1444              		.size	waThreadFullDemo, 616
 1445              	waThreadFullDemo:
 1446 0000 00000000 		.zero	616
 1446      00000000 
 1446      00000000 
 1446      00000000 
 1446      00000000 
 1447              		.section	.bss.iCarBlinker,"aw",@nobits
 1448              		.align 2
 1449              		.set	.LANCHOR3,. + 0
 1450              		.type	iCarBlinker, @object
 1451              		.size	iCarBlinker, 4
 1452              	iCarBlinker:
 1453 0000 00000000 		.zero	4
 1454              		.section	.bss.bFullDemoRunning,"aw",@nobits
 1455              		.set	.LANCHOR0,. + 0
 1456              		.type	bFullDemoRunning, @object
 1457              		.size	bFullDemoRunning, 1
 1458              	bFullDemoRunning:
 1459 0000 00       		.zero	1
 1460              		.section	.rodata.str1.4,"aMS",@progbits,1
 1461              		.align 2
 1462              	.LC0:
 1463 0000 55736167 		.string	"Usage: stopdemo\r\n"
 1463      653A2073 
 1463      746F7064 
 1463      656D6F0D 
 1463      0A00
 1464 0012 0000     		.zero	2
 1465              	.LC1:
 1466 0014 54687265 		.string	"ThreadFullDemo"
 1466      61644675 
 1466      6C6C4465 
 1466      6D6F00
 1467 0023 00       		.zero	1
 1468              	.LC2:
 1469 0024 55736167 		.string	"Usage: mem\r\n"
 1469      653A206D 
 1469      656D0D0A 
GAS LISTING C:\Users\thoma\AppData\Local\Temp\ccs6bbmE.s 			page 27


 1469      00
 1470 0031 000000   		.zero	3
 1471              	.LC3:
 1472 0034 636F7265 		.string	"core free memory : %u bytes\r\n"
 1472      20667265 
 1472      65206D65 
 1472      6D6F7279 
 1472      203A2025 
 1473 0052 0000     		.zero	2
 1474              	.LC4:
 1475 0054 68656170 		.string	"heap fragments   : %u\r\n"
 1475      20667261 
 1475      676D656E 
 1475      74732020 
 1475      203A2025 
 1476              	.LC5:
 1477 006c 68656170 		.string	"heap free total  : %u bytes\r\n"
 1477      20667265 
 1477      6520746F 
 1477      74616C20 
 1477      203A2025 
 1478 008a 0000     		.zero	2
 1479              	.LC6:
 1480 008c 55736167 		.string	"Usage: stopgps\r\n"
 1480      653A2073 
 1480      746F7067 
 1480      70730D0A 
 1480      00
 1481 009d 000000   		.zero	3
 1482              	.LC7:
 1483 00a0 54687265 		.string	"ThreadGPS terminated\r\n"
 1483      61644750 
 1483      53207465 
 1483      726D696E 
 1483      61746564 
 1484 00b7 00       		.zero	1
 1485              	.LC8:
 1486 00b8 54687265 		.string	"ThreadGPS not running\r\n"
 1486      61644750 
 1486      53206E6F 
 1486      74207275 
 1486      6E6E696E 
 1487              	.LC9:
 1488 00d0 55736167 		.string	"Usage: speed\r\n"
 1488      653A2073 
 1488      70656564 
 1488      0D0A00
 1489 00df 00       		.zero	1
 1490              	.LC10:
 1491 00e0 53706565 		.string	"Speed %d\r\n"
 1491      64202564 
 1491      0D0A00
 1492 00eb 00       		.zero	1
 1493              	.LC11:
 1494 00ec 55736167 		.string	"Usage: threads\r\n"
 1494      653A2074 
 1494      68726561 
GAS LISTING C:\Users\thoma\AppData\Local\Temp\ccs6bbmE.s 			page 28


 1494      64730D0A 
 1494      00
 1495 00fd 000000   		.zero	3
 1496              	.LC12:
 1497 0100 20202020 		.string	"    addr    stack prio refs     state time\r\n"
 1497      61646472 
 1497      20202020 
 1497      73746163 
 1497      6B207072 
 1498 012d 000000   		.zero	3
 1499              	.LC13:
 1500 0130 252E386C 		.string	"%.8lx %.8lx %4lu %4lu %9s %lu\r\n"
 1500      7820252E 
 1500      386C7820 
 1500      25346C75 
 1500      2025346C 
 1501              	.LC14:
 1502 0150 55736167 		.string	"Usage: startgps\r\n"
 1502      653A2073 
 1502      74617274 
 1502      6770730D 
 1502      0A00
 1503 0162 0000     		.zero	2
 1504              	.LC15:
 1505 0164 54687265 		.string	"ThreadGPS started\r\n"
 1505      61644750 
 1505      53207374 
 1505      61727465 
 1505      640D0A00 
 1506              	.LC16:
 1507 0178 54687265 		.string	"ThreadGPS already started\r\n"
 1507      61644750 
 1507      5320616C 
 1507      72656164 
 1507      79207374 
 1508              	.LC17:
 1509 0194 55736167 		.string	"Usage: startdemo\r\n"
 1509      653A2073 
 1509      74617274 
 1509      64656D6F 
 1509      0D0A00
 1510 01a7 00       		.zero	1
 1511              	.LC18:
 1512 01a8 46756C6C 		.string	"Full Demo Already running\r\n"
 1512      2044656D 
 1512      6F20416C 
 1512      72656164 
 1512      79207275 
 1513              	.LC19:
 1514 01c4 55736167 		.string	"Usage: lightBlue <(0/1)>\r\n"
 1514      653A206C 
 1514      69676874 
 1514      426C7565 
 1514      203C2830 
 1515 01df 00       		.zero	1
 1516              	.LC20:
 1517 01e0 55736167 		.string	"Usage: blink <0/1>\r\n"
GAS LISTING C:\Users\thoma\AppData\Local\Temp\ccs6bbmE.s 			page 29


 1517      653A2062 
 1517      6C696E6B 
 1517      203C302F 
 1517      313E0D0A 
 1518 01f5 000000   		.zero	3
 1519              	.LC21:
 1520 01f8 55736167 		.string	"Usage: drive <DIRECTION (0/1/2)> <SPEED (0-10000)>\r\n"
 1520      653A2064 
 1520      72697665 
 1520      203C4449 
 1520      52454354 
 1521 022d 000000   		.zero	3
 1522              	.LC22:
 1523 0230 506C6561 		.string	"Please between 0 and 10000\r\n"
 1523      73652062 
 1523      65747765 
 1523      656E2030 
 1523      20616E64 
 1524 024d 000000   		.zero	3
 1525              	.LC23:
 1526 0250 55736167 		.string	"Usage: turn <DIRECTION (0/1/2)>\r\n"
 1526      653A2074 
 1526      75726E20 
 1526      3C444952 
 1526      45435449 
 1527 0272 0000     		.zero	2
 1528              	.LC24:
 1529 0274 55736167 		.string	"Usage: send <ATCOMMAND>\r\n"
 1529      653A2073 
 1529      656E6420 
 1529      3C415443 
 1529      4F4D4D41 
 1530 028e 0000     		.zero	2
 1531              	.LC25:
 1532 0290 5741524E 		.string	"WARNING : BT device should not be connected on any terminal\r\n"
 1532      494E4720 
 1532      3A204254 
 1532      20646576 
 1532      69636520 
 1533 02ce 0000     		.zero	2
 1534              	.LC26:
 1535 02d0 0D0A00   		.string	"\r\n"
 1536 02d3 00       		.zero	1
 1537              	.LC27:
 1538 02d4 54687265 		.string	"ThreadCarBlinker"
 1538      61644361 
 1538      72426C69 
 1538      6E6B6572 
 1538      00
 1539 02e5 000000   		.zero	3
 1540              	.LC28:
 1541 02e8 52454144 		.string	"READY"
 1541      5900
 1542 02ee 0000     		.zero	2
 1543              	.LC29:
 1544 02f0 43555252 		.string	"CURRENT"
 1544      454E5400 
GAS LISTING C:\Users\thoma\AppData\Local\Temp\ccs6bbmE.s 			page 30


 1545              	.LC30:
 1546 02f8 53555350 		.string	"SUSPENDED"
 1546      454E4445 
 1546      4400
 1547 0302 0000     		.zero	2
 1548              	.LC31:
 1549 0304 57545345 		.string	"WTSEM"
 1549      4D00
 1550 030a 0000     		.zero	2
 1551              	.LC32:
 1552 030c 57544D54 		.string	"WTMTX"
 1552      5800
 1553 0312 0000     		.zero	2
 1554              	.LC33:
 1555 0314 5754434F 		.string	"WTCOND"
 1555      4E4400
 1556 031b 00       		.zero	1
 1557              	.LC34:
 1558 031c 534C4545 		.string	"SLEEPING"
 1558      50494E47 
 1558      00
 1559 0325 000000   		.zero	3
 1560              	.LC35:
 1561 0328 57544558 		.string	"WTEXIT"
 1561      495400
 1562 032f 00       		.zero	1
 1563              	.LC36:
 1564 0330 57544F52 		.string	"WTOREVT"
 1564      45565400 
 1565              	.LC37:
 1566 0338 5754414E 		.string	"WTANDEVT"
 1566      44455654 
 1566      00
 1567 0341 000000   		.zero	3
 1568              	.LC38:
 1569 0344 534E444D 		.string	"SNDMSGQ"
 1569      53475100 
 1570              	.LC39:
 1571 034c 534E444D 		.string	"SNDMSG"
 1571      534700
 1572 0353 00       		.zero	1
 1573              	.LC40:
 1574 0354 57544D53 		.string	"WTMSG"
 1574      4700
 1575 035a 0000     		.zero	2
 1576              	.LC41:
 1577 035c 57545155 		.string	"WTQUEUE"
 1577      45554500 
 1578              	.LC42:
 1579 0364 46494E41 		.string	"FINAL"
 1579      4C00
 1580 036a 0000     		.zero	2
 1581              	.LC43:
 1582 036c 6D656D00 		.string	"mem"
 1583              	.LC44:
 1584 0370 74687265 		.string	"threads"
 1584      61647300 
GAS LISTING C:\Users\thoma\AppData\Local\Temp\ccs6bbmE.s 			page 31


 1585              	.LC45:
 1586 0378 73656E64 		.string	"send"
 1586      00
 1587 037d 000000   		.zero	3
 1588              	.LC46:
 1589 0380 73746172 		.string	"startgps"
 1589      74677073 
 1589      00
 1590 0389 000000   		.zero	3
 1591              	.LC47:
 1592 038c 73746F70 		.string	"stopgps"
 1592      67707300 
 1593              	.LC48:
 1594 0394 73706565 		.string	"speed"
 1594      6400
 1595 039a 0000     		.zero	2
 1596              	.LC49:
 1597 039c 64726976 		.string	"drive"
 1597      6500
 1598 03a2 0000     		.zero	2
 1599              	.LC50:
 1600 03a4 7475726E 		.string	"turn"
 1600      00
 1601 03a9 000000   		.zero	3
 1602              	.LC51:
 1603 03ac 6C696768 		.string	"lightBlue"
 1603      74426C75 
 1603      6500
 1604 03b6 0000     		.zero	2
 1605              	.LC52:
 1606 03b8 626C696E 		.string	"blink"
 1606      6B00
 1607 03be 0000     		.zero	2
 1608              	.LC53:
 1609 03c0 73746172 		.string	"startdemo"
 1609      7464656D 
 1609      6F00
 1610 03ca 0000     		.zero	2
 1611              	.LC54:
 1612 03cc 73746F70 		.string	"stopdemo"
 1612      64656D6F 
 1612      00
 1613              		.section	.rodata.shell_commands,"a",@progbits
 1614              		.align 2
 1615              		.type	shell_commands, @object
 1616              		.size	shell_commands, 104
 1617              	shell_commands:
 1618 0000 00000000 		.long	.LC43
 1619 0004 00000000 		.long	cmd_mem
 1620 0008 00000000 		.long	.LC44
 1621 000c 00000000 		.long	cmd_threads
 1622 0010 00000000 		.long	.LC45
 1623 0014 00000000 		.long	cmd_at
 1624 0018 00000000 		.long	.LC46
 1625 001c 00000000 		.long	startgps
 1626 0020 00000000 		.long	.LC47
 1627 0024 00000000 		.long	stopgps
GAS LISTING C:\Users\thoma\AppData\Local\Temp\ccs6bbmE.s 			page 32


 1628 0028 00000000 		.long	.LC48
 1629 002c 00000000 		.long	speed
 1630 0030 00000000 		.long	.LC49
 1631 0034 00000000 		.long	drive
 1632 0038 00000000 		.long	.LC50
 1633 003c 00000000 		.long	turn
 1634 0040 00000000 		.long	.LC51
 1635 0044 00000000 		.long	lightBlue
 1636 0048 00000000 		.long	.LC52
 1637 004c 00000000 		.long	blink
 1638 0050 00000000 		.long	.LC53
 1639 0054 00000000 		.long	startdemo
 1640 0058 00000000 		.long	.LC54
 1641 005c 00000000 		.long	stopdemo
 1642 0060 00000000 		.long	0
 1643 0064 00000000 		.long	0
 1644              		.section	.rodata.states.9364,"a",@progbits
 1645              		.align 2
 1646              		.set	.LANCHOR1,. + 0
 1647              		.type	states.9364, @object
 1648              		.size	states.9364, 60
 1649              	states.9364:
 1650 0000 00000000 		.long	.LC28
 1651 0004 00000000 		.long	.LC29
 1652 0008 00000000 		.long	.LC30
 1653 000c 00000000 		.long	.LC31
 1654 0010 00000000 		.long	.LC32
 1655 0014 00000000 		.long	.LC33
 1656 0018 00000000 		.long	.LC34
 1657 001c 00000000 		.long	.LC35
 1658 0020 00000000 		.long	.LC36
 1659 0024 00000000 		.long	.LC37
 1660 0028 00000000 		.long	.LC38
 1661 002c 00000000 		.long	.LC39
 1662 0030 00000000 		.long	.LC40
 1663 0034 00000000 		.long	.LC41
 1664 0038 00000000 		.long	.LC42
 1665              		.section	.bss.waThreadCarBlinker,"aw",@nobits
 1666              		.align 3
 1667              		.type	waThreadCarBlinker, @object
 1668              		.size	waThreadCarBlinker, 616
 1669              	waThreadCarBlinker:
 1670 0000 00000000 		.zero	616
 1670      00000000 
 1670      00000000 
 1670      00000000 
 1670      00000000 
 1671              		.section	".text","axv"
 1672              	.Letext0:
 1673              		.file 3 "c:\\spc5studio\\eclipse\\plugins\\com.st.tools.spc5.tools.gnu.gcc.ppcvle.win32_1.0.0.2016
 1674              		.file 4 "c:\\spc5studio\\eclipse\\plugins\\com.st.tools.spc5.tools.gnu.gcc.ppcvle.win32_1.0.0.2016
 1675              		.file 5 "c:\\spc5studio\\eclipse\\plugins\\com.st.tools.spc5.tools.gnu.gcc.ppcvle.win32_1.0.0.2016
 1676              		.file 6 "./components/chibios_rt_spc560dxx_kernel_port_component/lib/include/chtypes.h"
 1677              		.file 7 "./components/chibios_rt_portable_kernel_component/lib/include/chlists.h"
 1678              		.file 8 "./components/chibios_rt_portable_kernel_component/lib/include/chthreads.h"
 1679              		.file 9 "./components/chibios_rt_spc560dxx_kernel_port_component/lib/include/chcore.h"
 1680              		.file 10 "./components/chibios_rt_portable_kernel_component/lib/include/chvt.h"
GAS LISTING C:\Users\thoma\AppData\Local\Temp\ccs6bbmE.s 			page 33


 1681              		.file 11 "./components/chibios_rt_portable_kernel_component/lib/include/chschd.h"
 1682              		.file 12 "./components/chibios_rt_portable_kernel_component/lib/include/chmtx.h"
 1683              		.file 13 "./components/chibios_rt_portable_kernel_component/lib/include/chevents.h"
 1684              		.file 14 "./components/chibios_rt_portable_kernel_component/lib/include/chmemcore.h"
 1685              		.file 15 "./components/chibios_rt_portable_kernel_component/lib/include/chheap.h"
 1686              		.file 16 "./components/chibios_rt_portable_kernel_component/lib/include/chqueues.h"
 1687              		.file 17 "./components/chibios_rt_portable_kernel_component/lib/include/chstreams.h"
 1688              		.file 18 "./components/chibios_rt_spc5xx_osal_component/lib/include/osal.h"
 1689              		.file 19 "./components/spc560dxx_hal_drivers_component/lib/include/xpc560d.h"
 1690              		.file 20 "./components/portable_spc5_hal_component/lib/include/hal_queues.h"
 1691              		.file 21 "./components/portable_spc5_hal_component/lib/include/serial.h"
 1692              		.file 22 "./components/spc560dxx_hal_drivers_component/lib/include/spc5_linflex.h"
 1693              		.file 23 "./components/chibios_rt_portable_mini_shell_component/lib/include/shell.h"
 1694              		.file 24 "c:\\spc5studio\\eclipse\\plugins\\com.st.tools.spc5.tools.gnu.gcc.ppcvle.win32_1.0.0.201
 1695              		.file 25 "<built-in>"
 1696              		.file 26 "./source/shellcmd.h"
 1697              		.file 27 "./source/shellbt.h"
 1698              		.file 28 "./source/speedsensor.h"
 1699              		.file 29 "./source/carcommand.h"
 1700              		.file 30 "./components/chibios_rt_portable_kernel_component/lib/include/chregistry.h"
 1701              		.file 31 "c:\\spc5studio\\eclipse\\plugins\\com.st.tools.spc5.tools.gnu.gcc.ppcvle.win32_1.0.0.201
 1702              		.file 32 "./components/spc560dxx_hal_drivers_component/lib/include/serial_lld.h"
 1703              		.file 33 "./source/serial_input.h"