GAS LISTING C:\Users\thoma\AppData\Local\Temp\cc8mI4Om.s 			page 1


   1              		.file	"speedsensor.c"
   2              		.section	".text","axv"
   3              	.Ltext0:
   4              		.cfi_sections	.debug_frame
   5              		.section	.text.affichage,"axv",@progbits
   6              		.align 1
   7              		.p2align 4,,15
   8              		.globl affichage
   9              		.type	affichage, @function
  10              	affichage:
  11              	.LFB46:
  12              		.file 1 "./source/speedsensor.c"
  13              		.loc 1 36 0
  14              		.cfi_startproc
  15              		.loc 1 37 0
  16 0000 7120E000 		e_lis %r9,.LANCHOR0@ha
  17 0004 51290000 		e_lwz %r9,.LANCHOR0@l(%r9)
  18 0008 1829A800 		e_cmpi %cr1,%r9,0
  19 000c 7A050098 		e_ble %cr1,.L2
  20              		.loc 1 37 0 is_stmt 0 discriminator 1
  21 0010 71400001 		e_li %r10,1
  22 0014 7138E3F9 		e_lis %r9,0xc3f9
  23 0018 35490629 		e_stb %r10,1577(%r9)
  24              	.L3:
  25              		.loc 1 39 0 is_stmt 1
  26 001c 7120E000 		e_lis %r9,.LANCHOR1@ha
  27 0020 51290000 		e_lwz %r9,.LANCHOR1@l(%r9)
  28 0024 1829A800 		e_cmpi %cr1,%r9,0
  29 0028 7138E3F9 		e_lis %r9,0xc3f9
  30 002c 7A050068 		e_ble %cr1,.L4
  31              		.loc 1 39 0 is_stmt 0 discriminator 1
  32 0030 71400001 		e_li %r10,1
  33 0034 35490602 		e_stb %r10,1538(%r9)
  34 0038 35490601 		e_stb %r10,1537(%r9)
  35              	.L5:
  36              		.loc 1 41 0 is_stmt 1
  37 003c 7120E000 		e_lis %r9,.LANCHOR2@ha
  38 0040 51290000 		e_lwz %r9,.LANCHOR2@l(%r9)
  39 0044 1829A800 		e_cmpi %cr1,%r9,0
  40 0048 7A05003C 		e_ble %cr1,.L6
  41              		.loc 1 41 0 is_stmt 0 discriminator 1
  42 004c 71400001 		e_li %r10,1
  43 0050 7138E3F9 		e_lis %r9,0xc3f9
  44 0054 35490611 		e_stb %r10,1553(%r9)
  45              	.L7:
  46              		.loc 1 43 0 is_stmt 1
  47 0058 7120E000 		e_lis %r9,.LANCHOR3@ha
  48 005c 51290000 		e_lwz %r9,.LANCHOR3@l(%r9)
  49 0060 1829A800 		e_cmpi %cr1,%r9,0
  50 0064 7A050012 		e_ble %cr1,.L8
  51              		.loc 1 43 0 is_stmt 0 discriminator 1
  52 0068 71400001 		e_li %r10,1
  53 006c 7138E3F9 		e_lis %r9,0xc3f9
  54 0070 35490624 		e_stb %r10,1572(%r9)
  55 0074 0004     		se_blr
  56              	.L8:
  57              		.loc 1 44 0 is_stmt 1
GAS LISTING C:\Users\thoma\AppData\Local\Temp\cc8mI4Om.s 			page 2


  58 0076 71400000 		e_li %r10,0
  59 007a 7138E3F9 		e_lis %r9,0xc3f9
  60 007e 35490624 		e_stb %r10,1572(%r9)
  61 0082 0004     		se_blr
  62              	.L6:
  63              		.loc 1 42 0
  64 0084 71400000 		e_li %r10,0
  65 0088 7138E3F9 		e_lis %r9,0xc3f9
  66 008c 35490611 		e_stb %r10,1553(%r9)
  67 0090 79FFFFC8 		e_b .L7
  68              	.L4:
  69              		.loc 1 40 0
  70 0094 71400000 		e_li %r10,0
  71 0098 35490602 		e_stb %r10,1538(%r9)
  72 009c 35490601 		e_stb %r10,1537(%r9)
  73 00a0 79FFFF9C 		e_b .L5
  74              	.L2:
  75              		.loc 1 38 0
  76 00a4 71400000 		e_li %r10,0
  77 00a8 7138E3F9 		e_lis %r9,0xc3f9
  78 00ac 35490629 		e_stb %r10,1577(%r9)
  79 00b0 79FFFF6C 		e_b .L3
  80              		.cfi_endproc
  81              	.LFE46:
  82              		.size	affichage, .-affichage
  83              		.section	.text.vector41,"axv",@progbits
  84              		.align 1
  85              		.p2align 4,,15
  86              		.globl vector41
  87              		.type	vector41, @function
  88              	vector41:
  89              	.LFB47:
  90              		.loc 1 50 0
  91              		.cfi_startproc
  92 0000 182106F0 		e_stwu %r1,-16(%r1)
  93              	.LCFI0:
  94              		.cfi_def_cfa_offset 16
  95 0004 0080     		se_mflr %r0
  96 0006 D3F1     		se_stw %r31,12(%r1)
  97 0008 D501     		se_stw %r0,20(%r1)
  98              		.cfi_offset 65, 4
  99              		.cfi_offset 31, -4
 100              		.loc 1 56 0
 101 000a 7138E3F9 		e_lis %r9,0xc3f9
 102 000e 53E90014 		e_lwz %r31,20(%r9)
 103              	.LVL0:
 104              		.loc 1 59 0
 105 0012 67EF     		se_btsti %r31,30
 106 0014 7A12003A 		e_beq %cr0,.L12
 107              		.loc 1 60 0
 108 0018 51090014 		e_lwz %r8,20(%r9)
 109 001c 4817     		se_li %r7,1
 110              		.loc 1 61 0
 111 001e 7140E000 		e_lis %r10,.LANCHOR4@ha
 112              		.loc 1 60 0
 113 0022 74E80FBC 		e_rlwimi %r8,%r7,1,30,30
 114 0026 55090014 		e_stw %r8,20(%r9)
GAS LISTING C:\Users\thoma\AppData\Local\Temp\cc8mI4Om.s 			page 3


 115              		.loc 1 61 0
 116 002a 512A0000 		e_lwz %r9,.LANCHOR4@l(%r10)
 117 002e 1829A800 		e_cmpi %cr1,%r9,0
 118 0032 7A06010C 		e_bne %cr1,.L13
 119              		.loc 1 62 0
 120 0036 7100E000 		e_lis %r8,.LANCHOR3@ha
 121              		.loc 1 63 0
 122 003a 54EA0000 		e_stw %r7,.LANCHOR4@l(%r10)
 123              		.loc 1 62 0
 124 003e 51280000 		e_lwz %r9,.LANCHOR3@l(%r8)
 125 0042 19298001 		e_addi %r9,%r9,1
 126 0046 55280000 		e_stw %r9,.LANCHOR3@l(%r8)
 127              		.loc 1 70 0
 128 004a 78000001 		e_bl affichage
 129              	.LVL1:
 130              	.L12:
 131              		.loc 1 75 0
 132 004e 67DF     		se_btsti %r31,29
 133 0050 7A120052 		e_beq %cr0,.L15
 134              		.loc 1 76 0
 135 0054 7138E3F9 		e_lis %r9,0xc3f9
 136 0058 4817     		se_li %r7,1
 137 005a 51090014 		e_lwz %r8,20(%r9)
 138              		.loc 1 77 0
 139 005e 7140E000 		e_lis %r10,.LANCHOR5@ha
 140              		.loc 1 76 0
 141 0062 74E8177A 		e_rlwimi %r8,%r7,2,29,29
 142              		.loc 1 79 0
 143 0066 70A0E000 		e_lis %r5,.LANCHOR0@ha
 144              		.loc 1 76 0
 145 006a 55090014 		e_stw %r8,20(%r9)
 146              		.loc 1 80 0
 147 006e 70C0E000 		e_lis %r6,.LANCHOR1@ha
 148              		.loc 1 77 0
 149 0072 512A0000 		e_lwz %r9,.LANCHOR5@l(%r10)
 150 0076 1829A800 		e_cmpi %cr1,%r9,0
 151 007a 7A16010C 		e_beq %cr1,.L38
 152              		.loc 1 86 0
 153 007e 50E50000 		e_lwz %r7,.LANCHOR0@l(%r5)
 154              		.loc 1 87 0
 155 0082 51060000 		e_lwz %r8,.LANCHOR1@l(%r6)
 156              		.loc 1 85 0
 157 0086 192984FF 		e_addi %r9,%r9,-1
 158              		.loc 1 86 0
 159 008a 18E784FF 		e_addi %r7,%r7,-1
 160              		.loc 1 87 0
 161 008e 190884FF 		e_addi %r8,%r8,-1
 162              		.loc 1 85 0
 163 0092 552A0000 		e_stw %r9,.LANCHOR5@l(%r10)
 164              		.loc 1 86 0
 165 0096 54E50000 		e_stw %r7,.LANCHOR0@l(%r5)
 166              		.loc 1 87 0
 167 009a 55060000 		e_stw %r8,.LANCHOR1@l(%r6)
 168              		.loc 1 89 0
 169 009e 78000001 		e_bl affichage
 170              	.LVL2:
 171              	.L15:
GAS LISTING C:\Users\thoma\AppData\Local\Temp\cc8mI4Om.s 			page 4


 172              		.loc 1 95 0
 173 00a2 67CF     		se_btsti %r31,28
 174 00a4 7A120018 		e_beq %cr0,.L18
 175              		.loc 1 96 0
 176 00a8 7138E3F9 		e_lis %r9,0xc3f9
 177 00ac 71000001 		e_li %r8,1
 178 00b0 51490014 		e_lwz %r10,20(%r9)
 179 00b4 750A1F38 		e_rlwimi %r10,%r8,3,28,28
 180 00b8 55490014 		e_stw %r10,20(%r9)
 181              	.L18:
 182              		.loc 1 101 0
 183 00bc 67BF     		se_btsti %r31,27
 184 00be 7A12004E 		e_beq %cr0,.L19
 185              		.loc 1 102 0
 186 00c2 7138E3F9 		e_lis %r9,0xc3f9
 187 00c6 4817     		se_li %r7,1
 188 00c8 51090014 		e_lwz %r8,20(%r9)
 189              		.loc 1 103 0
 190 00cc 7140E000 		e_lis %r10,.LANCHOR6@ha
 191              		.loc 1 102 0
 192 00d0 74E826F6 		e_rlwimi %r8,%r7,4,27,27
 193              		.loc 1 106 0
 194 00d4 70A0E000 		e_lis %r5,.LANCHOR2@ha
 195              		.loc 1 102 0
 196 00d8 55090014 		e_stw %r8,20(%r9)
 197              		.loc 1 107 0
 198 00dc 70C0E000 		e_lis %r6,.LANCHOR0@ha
 199              		.loc 1 103 0
 200 00e0 512A0000 		e_lwz %r9,.LANCHOR6@l(%r10)
 201 00e4 1829A800 		e_cmpi %cr1,%r9,0
 202 00e8 7A060076 		e_bne %cr1,.L20
 203              		.loc 1 106 0
 204 00ec 51050000 		e_lwz %r8,.LANCHOR2@l(%r5)
 205              		.loc 1 107 0
 206 00f0 51260000 		e_lwz %r9,.LANCHOR0@l(%r6)
 207              		.loc 1 106 0
 208 00f4 19088001 		e_addi %r8,%r8,1
 209              		.loc 1 107 0
 210 00f8 19298001 		e_addi %r9,%r9,1
 211              		.loc 1 105 0
 212 00fc 54EA0000 		e_stw %r7,.LANCHOR6@l(%r10)
 213              		.loc 1 106 0
 214 0100 55050000 		e_stw %r8,.LANCHOR2@l(%r5)
 215              		.loc 1 107 0
 216 0104 55260000 		e_stw %r9,.LANCHOR0@l(%r6)
 217              		.loc 1 115 0
 218 0108 78000001 		e_bl affichage
 219              	.LVL3:
 220              	.L19:
 221              		.loc 1 121 0
 222 010c 67FF     		se_btsti %r31,31
 223 010e 7A120026 		e_beq %cr0,.L11
 224              		.loc 1 122 0
 225 0112 7138E3F9 		e_lis %r9,0xc3f9
 226              		.loc 1 123 0
 227 0116 7140E000 		e_lis %r10,.LANCHOR7@ha
 228              		.loc 1 122 0
GAS LISTING C:\Users\thoma\AppData\Local\Temp\cc8mI4Om.s 			page 5


 229 011a 51090014 		e_lwz %r8,20(%r9)
 230 011e 4817     		se_li %r7,1
 231 0120 74E807FE 		e_rlwimi %r8,%r7,0,31,31
 232 0124 55090014 		e_stw %r8,20(%r9)
 233              		.loc 1 123 0
 234 0128 512A0000 		e_lwz %r9,.LANCHOR7@l(%r10)
 235 012c 19298001 		e_addi %r9,%r9,1
 236 0130 552A0000 		e_stw %r9,.LANCHOR7@l(%r10)
 237              	.L11:
 238              		.loc 1 127 0
 239 0134 C501     		se_lwz %r0,20(%r1)
 240 0136 0090     		se_mtlr %r0
 241              		.cfi_remember_state
 242              		.cfi_restore 65
 243 0138 C3F1     		se_lwz %r31,12(%r1)
 244              	.LVL4:
 245 013a 20F1     		se_addi %r1,16
 246              	.LCFI1:
 247              		.cfi_restore 31
 248              		.cfi_def_cfa_offset 0
 249 013c 0004     		se_blr
 250              	.LVL5:
 251              	.L13:
 252              	.LCFI2:
 253              		.cfi_restore_state
 254              		.loc 1 68 0
 255 013e 70E0E000 		e_lis %r7,.LANCHOR3@ha
 256              		.loc 1 67 0
 257 0142 192984FF 		e_addi %r9,%r9,-1
 258              		.loc 1 68 0
 259 0146 51070000 		e_lwz %r8,.LANCHOR3@l(%r7)
 260              		.loc 1 67 0
 261 014a 552A0000 		e_stw %r9,.LANCHOR4@l(%r10)
 262              		.loc 1 68 0
 263 014e 190884FF 		e_addi %r8,%r8,-1
 264 0152 55070000 		e_stw %r8,.LANCHOR3@l(%r7)
 265              		.loc 1 70 0
 266 0156 78000001 		e_bl affichage
 267              	.LVL6:
 268 015a 79FFFEF4 		e_b .L12
 269              	.L20:
 270              		.loc 1 112 0
 271 015e 50E50000 		e_lwz %r7,.LANCHOR2@l(%r5)
 272              		.loc 1 113 0
 273 0162 51060000 		e_lwz %r8,.LANCHOR0@l(%r6)
 274              		.loc 1 111 0
 275 0166 192984FF 		e_addi %r9,%r9,-1
 276              		.loc 1 112 0
 277 016a 18E784FF 		e_addi %r7,%r7,-1
 278              		.loc 1 113 0
 279 016e 190884FF 		e_addi %r8,%r8,-1
 280              		.loc 1 111 0
 281 0172 552A0000 		e_stw %r9,.LANCHOR6@l(%r10)
 282              		.loc 1 112 0
 283 0176 54E50000 		e_stw %r7,.LANCHOR2@l(%r5)
 284              		.loc 1 113 0
 285 017a 55060000 		e_stw %r8,.LANCHOR0@l(%r6)
GAS LISTING C:\Users\thoma\AppData\Local\Temp\cc8mI4Om.s 			page 6


 286              		.loc 1 115 0
 287 017e 78000001 		e_bl affichage
 288              	.LVL7:
 289 0182 79FFFF8A 		e_b .L19
 290              	.L38:
 291              		.loc 1 79 0
 292 0186 51050000 		e_lwz %r8,.LANCHOR0@l(%r5)
 293              		.loc 1 80 0
 294 018a 51260000 		e_lwz %r9,.LANCHOR1@l(%r6)
 295              		.loc 1 79 0
 296 018e 19088001 		e_addi %r8,%r8,1
 297              		.loc 1 80 0
 298 0192 19298001 		e_addi %r9,%r9,1
 299              		.loc 1 78 0
 300 0196 54EA0000 		e_stw %r7,.LANCHOR5@l(%r10)
 301              		.loc 1 79 0
 302 019a 55050000 		e_stw %r8,.LANCHOR0@l(%r5)
 303              		.loc 1 80 0
 304 019e 55260000 		e_stw %r9,.LANCHOR1@l(%r6)
 305              		.loc 1 81 0
 306 01a2 78000001 		e_bl stopcmd
 307              	.LVL8:
 308              		.loc 1 89 0
 309 01a6 78000001 		e_bl affichage
 310              	.LVL9:
 311 01aa 79FFFEF8 		e_b .L15
 312              		.cfi_endproc
 313              	.LFE47:
 314              		.size	vector41, .-vector41
 315              		.section	.text.initSpeedSensor,"axv",@progbits
 316              		.align 1
 317              		.p2align 4,,15
 318              		.globl initSpeedSensor
 319              		.type	initSpeedSensor, @function
 320              	initSpeedSensor:
 321              	.LFB48:
 322              		.loc 1 130 0
 323              		.cfi_startproc
 324              		.loc 1 136 0
 325 0000 7138E3F9 		e_lis %r9,0xc3f9
 326 0004 71000001 		e_li %r8,1
 327              		.loc 1 133 0
 328 0008 4877     		se_li %r7,7
 329 000a 715FE7F4 		e_lis %r10,0xfff4
 330 000e 7150C069 		e_or2i %r10,32873
 331 0012 34EA0000 		e_stb %r7,0(%r10)
 332              		.loc 1 136 0
 333 0016 51490028 		e_lwz %r10,40(%r9)
 334 001a 750A07FE 		e_rlwimi %r10,%r8,0,31,31
 335 001e 55490028 		e_stw %r10,40(%r9)
 336              		.loc 1 139 0
 337 0022 51490018 		e_lwz %r10,24(%r9)
 338 0026 750A07FE 		e_rlwimi %r10,%r8,0,31,31
 339 002a 55490018 		e_stw %r10,24(%r9)
 340 002e 0004     		se_blr
 341              		.cfi_endproc
 342              	.LFE48:
GAS LISTING C:\Users\thoma\AppData\Local\Temp\cc8mI4Om.s 			page 7


 343              		.size	initSpeedSensor, .-initSpeedSensor
 344              		.section	.text.initEvents,"axv",@progbits
 345              		.align 1
 346              		.p2align 4,,15
 347              		.globl initEvents
 348              		.type	initEvents, @function
 349              	initEvents:
 350              	.LFB49:
 351              		.loc 1 142 0
 352              		.cfi_startproc
 353              		.loc 1 148 0
 354 0000 7138E3F9 		e_lis %r9,0xc3f9
 355 0004 71400001 		e_li %r10,1
 356              		.loc 1 150 0
 357 0008 7100000F 		e_li %r8,15
 358              		.loc 1 145 0
 359 000c 4876     		se_li %r6,7
 360 000e 70FFE7F4 		e_lis %r7,0xfff4
 361 0012 70F0C069 		e_or2i %r7,32873
 362 0016 9067     		se_stb %r6,0(%r7)
 363              		.loc 1 148 0
 364 0018 50E9002C 		e_lwz %r7,44(%r9)
 365 001c 75470FBC 		e_rlwimi %r7,%r10,1,30,30
 366 0020 54E9002C 		e_stw %r7,44(%r9)
 367              		.loc 1 149 0
 368 0024 50E90030 		e_lwz %r7,48(%r9)
 369 0028 75470FBC 		e_rlwimi %r7,%r10,1,30,30
 370 002c 54E90030 		e_stw %r7,48(%r9)
 371              		.loc 1 150 0
 372 0030 55091004 		e_stw %r8,4100(%r9)
 373              		.loc 1 153 0
 374 0034 50E9002C 		e_lwz %r7,44(%r9)
 375 0038 7547177A 		e_rlwimi %r7,%r10,2,29,29
 376 003c 54E9002C 		e_stw %r7,44(%r9)
 377              		.loc 1 154 0
 378 0040 50E90030 		e_lwz %r7,48(%r9)
 379 0044 7547177A 		e_rlwimi %r7,%r10,2,29,29
 380 0048 54E90030 		e_stw %r7,48(%r9)
 381              		.loc 1 155 0
 382 004c 55091008 		e_stw %r8,4104(%r9)
 383              		.loc 1 158 0
 384 0050 50E9002C 		e_lwz %r7,44(%r9)
 385 0054 75471F38 		e_rlwimi %r7,%r10,3,28,28
 386 0058 54E9002C 		e_stw %r7,44(%r9)
 387              		.loc 1 159 0
 388 005c 50E90030 		e_lwz %r7,48(%r9)
 389 0060 75471F38 		e_rlwimi %r7,%r10,3,28,28
 390 0064 54E90030 		e_stw %r7,48(%r9)
 391              		.loc 1 160 0
 392 0068 5509100C 		e_stw %r8,4108(%r9)
 393              		.loc 1 163 0
 394 006c 50E9002C 		e_lwz %r7,44(%r9)
 395 0070 754726F6 		e_rlwimi %r7,%r10,4,27,27
 396 0074 54E9002C 		e_stw %r7,44(%r9)
 397              		.loc 1 164 0
 398 0078 50E90030 		e_lwz %r7,48(%r9)
 399 007c 754726F6 		e_rlwimi %r7,%r10,4,27,27
GAS LISTING C:\Users\thoma\AppData\Local\Temp\cc8mI4Om.s 			page 8


 400 0080 54E90030 		e_stw %r7,48(%r9)
 401              		.loc 1 165 0
 402 0084 55091010 		e_stw %r8,4112(%r9)
 403              		.loc 1 168 0
 404 0088 51090018 		e_lwz %r8,24(%r9)
 405 008c 75480FBC 		e_rlwimi %r8,%r10,1,30,30
 406 0090 55090018 		e_stw %r8,24(%r9)
 407              		.loc 1 169 0
 408 0094 51090018 		e_lwz %r8,24(%r9)
 409 0098 7548177A 		e_rlwimi %r8,%r10,2,29,29
 410 009c 55090018 		e_stw %r8,24(%r9)
 411              		.loc 1 170 0
 412 00a0 51090018 		e_lwz %r8,24(%r9)
 413 00a4 75481F38 		e_rlwimi %r8,%r10,3,28,28
 414 00a8 55090018 		e_stw %r8,24(%r9)
 415              		.loc 1 171 0
 416 00ac 51090018 		e_lwz %r8,24(%r9)
 417 00b0 754826F6 		e_rlwimi %r8,%r10,4,27,27
 418 00b4 55090018 		e_stw %r8,24(%r9)
 419 00b8 0004     		se_blr
 420              		.cfi_endproc
 421              	.LFE49:
 422              		.size	initEvents, .-initEvents
 423              		.section	.text.resetSpeedSensor,"axv",@progbits
 424              		.align 1
 425              		.p2align 4,,15
 426              		.globl resetSpeedSensor
 427              		.type	resetSpeedSensor, @function
 428              	resetSpeedSensor:
 429              	.LFB50:
 430              		.loc 1 174 0
 431              		.cfi_startproc
 432              		.loc 1 175 0
 433 0000 71400000 		e_li %r10,0
 434 0004 7120E000 		e_lis %r9,.LANCHOR7@ha
 435 0008 55490000 		e_stw %r10,.LANCHOR7@l(%r9)
 436 000c 0004     		se_blr
 437              		.cfi_endproc
 438              	.LFE50:
 439              		.size	resetSpeedSensor, .-resetSpeedSensor
 440              		.globl r2
 441              		.globl r1
 442              		.globl bc2
 443              		.globl b2
 444              		.globl b
 445              		.globl bc
 446              		.globl j
 447              		.globl r
 448              		.globl counter
 449              		.section	.bss.j,"aw",@nobits
 450              		.align 2
 451              		.set	.LANCHOR1,. + 0
 452              		.type	j, @object
 453              		.size	j, 4
 454              	j:
 455 0000 00000000 		.zero	4
 456              		.section	.bss.bc2,"aw",@nobits
GAS LISTING C:\Users\thoma\AppData\Local\Temp\cc8mI4Om.s 			page 9


 457              		.align 2
 458              		.set	.LANCHOR6,. + 0
 459              		.type	bc2, @object
 460              		.size	bc2, 4
 461              	bc2:
 462 0000 00000000 		.zero	4
 463              		.section	.bss.r,"aw",@nobits
 464              		.align 2
 465              		.set	.LANCHOR0,. + 0
 466              		.type	r, @object
 467              		.size	r, 4
 468              	r:
 469 0000 00000000 		.zero	4
 470              		.section	.bss.b2,"aw",@nobits
 471              		.align 2
 472              		.set	.LANCHOR4,. + 0
 473              		.type	b2, @object
 474              		.size	b2, 4
 475              	b2:
 476 0000 00000000 		.zero	4
 477              		.section	.bss.r2,"aw",@nobits
 478              		.align 2
 479              		.set	.LANCHOR5,. + 0
 480              		.type	r2, @object
 481              		.size	r2, 4
 482              	r2:
 483 0000 00000000 		.zero	4
 484              		.section	.bss.b,"aw",@nobits
 485              		.align 2
 486              		.set	.LANCHOR3,. + 0
 487              		.type	b, @object
 488              		.size	b, 4
 489              	b:
 490 0000 00000000 		.zero	4
 491              		.section	.bss.r1,"aw",@nobits
 492              		.align 2
 493              		.type	r1, @object
 494              		.size	r1, 4
 495              	r1:
 496 0000 00000000 		.zero	4
 497              		.section	.bss.bc,"aw",@nobits
 498              		.align 2
 499              		.set	.LANCHOR2,. + 0
 500              		.type	bc, @object
 501              		.size	bc, 4
 502              	bc:
 503 0000 00000000 		.zero	4
 504              		.section	.bss.counter,"aw",@nobits
 505              		.align 2
 506              		.set	.LANCHOR7,. + 0
 507              		.type	counter, @object
 508              		.size	counter, 4
 509              	counter:
 510 0000 00000000 		.zero	4
 511              		.section	".text","axv"
 512              	.Letext0:
 513              		.file 2 "c:\\spc5studio\\eclipse\\plugins\\com.st.tools.spc5.tools.gnu.gcc.ppcvle.win32_1.0.0.2016
GAS LISTING C:\Users\thoma\AppData\Local\Temp\cc8mI4Om.s 			page 10


 514              		.file 3 "c:\\spc5studio\\eclipse\\plugins\\com.st.tools.spc5.tools.gnu.gcc.ppcvle.win32_1.0.0.2016
 515              		.file 4 "./components/chibios_rt_spc560dxx_kernel_port_component/lib/include/chtypes.h"
 516              		.file 5 "./components/chibios_rt_portable_kernel_component/lib/include/chvt.h"
 517              		.file 6 "./components/spc560dxx_hal_drivers_component/lib/include/xpc560d.h"
 518              		.file 7 "./source/carcommand.h"